
; === function 0x0002C2 (file=0x001B92) size=508 ints=- callers=1 ===
0x0002C2:  55                  push bp
0x0002C3:  89 e5               mov bp, sp
0x0002C5:  31 c0               xor ax, ax
0x0002C7:  9a cd 02 78 0f      lcall 0xf78, 0x2cd
0x0002CC:  bf cc 3f            mov di, 0x3fcc
0x0002CF:  1e                  push ds
0x0002D0:  57                  push di
0x0002D1:  9a dd 05 78 0f      lcall 0xf78, 0x5dd
0x0002D6:  9a 91 02 78 0f      lcall 0xf78, 0x291
0x0002DB:  bf cc 3f            mov di, 0x3fcc
0x0002DE:  1e                  push ds
0x0002DF:  57                  push di
0x0002E0:  9a dd 05 78 0f      lcall 0xf78, 0x5dd
0x0002E5:  9a 91 02 78 0f      lcall 0xf78, 0x291
0x0002EA:  bf cc 3f            mov di, 0x3fcc
0x0002ED:  1e                  push ds
0x0002EE:  57                  push di
0x0002EF:  9a dd 05 78 0f      lcall 0xf78, 0x5dd
0x0002F4:  9a 91 02 78 0f      lcall 0xf78, 0x291
0x0002F9:  bf cc 3f            mov di, 0x3fcc
0x0002FC:  1e                  push ds
0x0002FD:  57                  push di
0x0002FE:  9a dd 05 78 0f      lcall 0xf78, 0x5dd
0x000303:  9a 91 02 78 0f      lcall 0xf78, 0x291
0x000308:  bf cc 3f            mov di, 0x3fcc
0x00030B:  1e                  push ds
0x00030C:  57                  push di
0x00030D:  9a dd 05 78 0f      lcall 0xf78, 0x5dd
0x000312:  9a 91 02 78 0f      lcall 0xf78, 0x291
0x000317:  bf 00 00            mov di, 0
0x00031A:  0e                  push cs
0x00031B:  57                  push di
0x00031C:  31 c0               xor ax, ax
0x00031E:  50                  push ax
0x00031F:  31 c0               xor ax, ax
0x000321:  50                  push ax
0x000322:  31 c0               xor ax, ax
0x000324:  50                  push ax
0x000325:  31 c0               xor ax, ax
0x000327:  50                  push ax
0x000328:  31 c0               xor ax, ax
0x00032A:  50                  push ax
0x00032B:  9a c2 01 ed 0e      lcall 0xeed, 0x1c2
0x000330:  bf 40 00            mov di, 0x40
0x000333:  0e                  push cs
0x000334:  57                  push di
0x000335:  31 c0               xor ax, ax
0x000337:  50                  push ax
0x000338:  31 c0               xor ax, ax
0x00033A:  50                  push ax
0x00033B:  31 c0               xor ax, ax
0x00033D:  50                  push ax
0x00033E:  31 c0               xor ax, ax
0x000340:  50                  push ax
0x000341:  31 c0               xor ax, ax
0x000343:  50                  push ax
0x000344:  9a c2 01 ed 0e      lcall 0xeed, 0x1c2
0x000349:  bf 80 00            mov di, 0x80
0x00034C:  0e                  push cs
0x00034D:  57                  push di
0x00034E:  31 c0               xor ax, ax
0x000350:  50                  push ax
0x000351:  31 c0               xor ax, ax
0x000353:  50                  push ax
0x000354:  31 c0               xor ax, ax
0x000356:  50                  push ax
0x000357:  31 c0               xor ax, ax
0x000359:  50                  push ax
0x00035A:  31 c0               xor ax, ax
0x00035C:  50                  push ax
0x00035D:  9a c2 01 ed 0e      lcall 0xeed, 0x1c2
0x000362:  bf c0 00            mov di, 0xc0
0x000365:  0e                  push cs
0x000366:  57                  push di
0x000367:  31 c0               xor ax, ax
0x000369:  50                  push ax
0x00036A:  31 c0               xor ax, ax
0x00036C:  50                  push ax
0x00036D:  31 c0               xor ax, ax
0x00036F:  50                  push ax
0x000370:  31 c0               xor ax, ax
0x000372:  50                  push ax
0x000373:  31 c0               xor ax, ax
0x000375:  50                  push ax
0x000376:  9a c2 01 ed 0e      lcall 0xeed, 0x1c2
0x00037B:  bf 00 01            mov di, 0x100
0x00037E:  0e                  push cs
0x00037F:  57                  push di
0x000380:  31 c0               xor ax, ax
0x000382:  50                  push ax
0x000383:  31 c0               xor ax, ax
0x000385:  50                  push ax
0x000386:  31 c0               xor ax, ax
0x000388:  50                  push ax
0x000389:  31 c0               xor ax, ax
0x00038B:  50                  push ax
0x00038C:  31 c0               xor ax, ax
0x00038E:  50                  push ax
0x00038F:  9a c2 01 ed 0e      lcall 0xeed, 0x1c2
0x000394:  bf 40 01            mov di, 0x140
0x000397:  0e                  push cs
0x000398:  57                  push di
0x000399:  31 c0               xor ax, ax
0x00039B:  50                  push ax
0x00039C:  31 c0               xor ax, ax
0x00039E:  50                  push ax
0x00039F:  31 c0               xor ax, ax
0x0003A1:  50                  push ax
0x0003A2:  31 c0               xor ax, ax
0x0003A4:  50                  push ax
0x0003A5:  31 c0               xor ax, ax
0x0003A7:  50                  push ax
0x0003A8:  9a c2 01 ed 0e      lcall 0xeed, 0x1c2
0x0003AD:  bf 80 01            mov di, 0x180
0x0003B0:  0e                  push cs
0x0003B1:  57                  push di
0x0003B2:  31 c0               xor ax, ax
0x0003B4:  50                  push ax
0x0003B5:  31 c0               xor ax, ax
0x0003B7:  50                  push ax
0x0003B8:  31 c0               xor ax, ax
0x0003BA:  50                  push ax
0x0003BB:  31 c0               xor ax, ax
0x0003BD:  50                  push ax
0x0003BE:  31 c0               xor ax, ax
0x0003C0:  50                  push ax
0x0003C1:  9a c2 01 ed 0e      lcall 0xeed, 0x1c2
0x0003C6:  bf c0 01            mov di, 0x1c0
0x0003C9:  0e                  push cs
0x0003CA:  57                  push di
0x0003CB:  31 c0               xor ax, ax
0x0003CD:  50                  push ax
0x0003CE:  31 c0               xor ax, ax
0x0003D0:  50                  push ax
0x0003D1:  31 c0               xor ax, ax
0x0003D3:  50                  push ax
0x0003D4:  31 c0               xor ax, ax
0x0003D6:  50                  push ax
0x0003D7:  31 c0               xor ax, ax
0x0003D9:  50                  push ax
0x0003DA:  9a c2 01 ed 0e      lcall 0xeed, 0x1c2
0x0003DF:  bf cc 3f            mov di, 0x3fcc
0x0003E2:  1e                  push ds
0x0003E3:  57                  push di
0x0003E4:  9a dd 05 78 0f      lcall 0xf78, 0x5dd
0x0003E9:  9a 91 02 78 0f      lcall 0xf78, 0x291
0x0003EE:  bf 00 02            mov di, 0x200
0x0003F1:  0e                  push cs
0x0003F2:  57                  push di
0x0003F3:  31 c0               xor ax, ax
0x0003F5:  50                  push ax
0x0003F6:  31 c0               xor ax, ax
0x0003F8:  50                  push ax
0x0003F9:  31 c0               xor ax, ax
0x0003FB:  50                  push ax
0x0003FC:  31 c0               xor ax, ax
0x0003FE:  50                  push ax
0x0003FF:  31 c0               xor ax, ax
0x000401:  50                  push ax
0x000402:  9a c2 01 ed 0e      lcall 0xeed, 0x1c2
0x000407:  bf cc 3f            mov di, 0x3fcc
0x00040A:  1e                  push ds
0x00040B:  57                  push di
0x00040C:  9a dd 05 78 0f      lcall 0xf78, 0x5dd
0x000411:  9a 91 02 78 0f      lcall 0xf78, 0x291
0x000416:  bf cc 3f            mov di, 0x3fcc
0x000419:  1e                  push ds
0x00041A:  57                  push di
0x00041B:  9a dd 05 78 0f      lcall 0xf78, 0x5dd
0x000420:  9a 91 02 78 0f      lcall 0xf78, 0x291
0x000425:  bf cc 3f            mov di, 0x3fcc
0x000428:  1e                  push ds
0x000429:  57                  push di
0x00042A:  9a dd 05 78 0f      lcall 0xf78, 0x5dd
0x00042F:  9a 91 02 78 0f      lcall 0xf78, 0x291
0x000434:  bf 3e 02            mov di, 0x23e
0x000437:  0e                  push cs
0x000438:  57                  push di
0x000439:  31 c0               xor ax, ax
0x00043B:  50                  push ax
0x00043C:  31 c0               xor ax, ax
0x00043E:  50                  push ax
0x00043F:  31 c0               xor ax, ax
0x000441:  50                  push ax
0x000442:  31 c0               xor ax, ax
0x000444:  50                  push ax
0x000445:  31 c0               xor ax, ax
0x000447:  50                  push ax
0x000448:  9a c2 01 ed 0e      lcall 0xeed, 0x1c2
0x00044D:  bf cc 3f            mov di, 0x3fcc
0x000450:  1e                  push ds
0x000451:  57                  push di
0x000452:  9a dd 05 78 0f      lcall 0xf78, 0x5dd
0x000457:  9a 91 02 78 0f      lcall 0xf78, 0x291
0x00045C:  bf cc 3f            mov di, 0x3fcc
0x00045F:  1e                  push ds
0x000460:  57                  push di
0x000461:  9a dd 05 78 0f      lcall 0xf78, 0x5dd
0x000466:  9a 91 02 78 0f      lcall 0xf78, 0x291
0x00046B:  bf cc 3f            mov di, 0x3fcc
0x00046E:  1e                  push ds
0x00046F:  57                  push di
0x000470:  9a dd 05 78 0f      lcall 0xf78, 0x5dd
0x000475:  9a 91 02 78 0f      lcall 0xf78, 0x291
0x00047A:  bf cc 3f            mov di, 0x3fcc
0x00047D:  1e                  push ds
0x00047E:  57                  push di
0x00047F:  9a dd 05 78 0f      lcall 0xf78, 0x5dd
0x000484:  9a 91 02 78 0f      lcall 0xf78, 0x291
0x000489:  bf 74 02            mov di, 0x274
0x00048C:  0e                  push cs
0x00048D:  57                  push di
0x00048E:  31 c0               xor ax, ax
0x000490:  50                  push ax
0x000491:  31 c0               xor ax, ax
0x000493:  50                  push ax
0x000494:  31 c0               xor ax, ax
0x000496:  50                  push ax
0x000497:  31 c0               xor ax, ax
0x000499:  50                  push ax
0x00049A:  31 c0               xor ax, ax
0x00049C:  50                  push ax
0x00049D:  9a c2 01 ed 0e      lcall 0xeed, 0x1c2
0x0004A2:  b0 00               mov al, 0
0x0004A4:  50                  push ax
0x0004A5:  9a 63 02 16 0f      lcall 0xf16, 0x263
0x0004AA:  9a 1a 03 16 0f      lcall 0xf16, 0x31a
0x0004AF:  b0 0f               mov al, 0xf
0x0004B1:  50                  push ax
0x0004B2:  9a 63 02 16 0f      lcall 0xf16, 0x263
0x0004B7:  9a cc 01 16 0f      lcall 0xf16, 0x1cc
0x0004BC:  5d                  pop bp
0x0004BD:  c3                  ret 

; === function 0x0011C2 (file=0x002A92) size=371 ints=- callers=1 ===
0x0011C2:  55                  push bp
0x0011C3:  89 e5               mov bp, sp
0x0011C5:  b8 04 00            mov ax, 4
0x0011C8:  9a cd 02 78 0f      lcall 0xf78, 0x2cd
0x0011CD:  83 ec 04            sub sp, 4
0x0011D0:  c7 06 52 39 0a 00   mov word ptr [0x3952], 0xa
0x0011D6:  80 7e 04 00         cmp byte ptr [bp + 4], 0
0x0011DA:  75 23               jne 0x11ff
0x0011DC:  c7 06 5c 39 7d 00   mov word ptr [0x395c], 0x7d
0x0011E2:  c7 06 54 39 29 00   mov word ptr [0x3954], 0x29
0x0011E8:  c7 06 56 39 32 00   mov word ptr [0x3956], 0x32
0x0011EE:  c7 06 58 39 7b 00   mov word ptr [0x3958], 0x7b
0x0011F4:  c7 06 5a 39 24 00   mov word ptr [0x395a], 0x24
0x0011FA:  c6 06 68 39 3c      mov byte ptr [0x3968], 0x3c
0x0011FF:  80 7e 04 01         cmp byte ptr [bp + 4], 1
0x0011FF:  80 7e 04 01         cmp byte ptr [bp + 4], 1
0x001203:  75 23               jne 0x1228
0x001203:  75 23               jne 0x1228
0x001205:  c7 06 5c 39 a0 00   mov word ptr [0x395c], 0xa0
0x001205:  c7 06 5c 39 a0 00   mov word ptr [0x395c], 0xa0
0x00120B:  c7 06 54 39 32 00   mov word ptr [0x3954], 0x32
0x00120B:  c7 06 54 39 32 00   mov word ptr [0x3954], 0x32
0x001211:  c7 06 56 39 3c 00   mov word ptr [0x3956], 0x3c
0x001211:  c7 06 56 39 3c 00   mov word ptr [0x3956], 0x3c
0x001217:  c7 06 58 39 bc 00   mov word ptr [0x3958], 0xbc
0x001217:  c7 06 58 39 bc 00   mov word ptr [0x3958], 0xbc
0x00121D:  c7 06 5a 39 20 00   mov word ptr [0x395a], 0x20
0x00121D:  c7 06 5a 39 20 00   mov word ptr [0x395a], 0x20
0x001223:  c6 06 68 39 50      mov byte ptr [0x3968], 0x50
0x001223:  c6 06 68 39 50      mov byte ptr [0x3968], 0x50
0x001228:  a1 54 39            mov ax, word ptr [0x3954]
0x001228:  a1 54 39            mov ax, word ptr [0x3954]
0x001228:  a1 54 39            mov ax, word ptr [0x3954]
0x00122B:  99                  cdq 
0x00122B:  99                  cdq 
0x00122B:  99                  cdq 
0x00122C:  b9 02 00            mov cx, 2
0x00122C:  b9 02 00            mov cx, 2
0x00122C:  b9 02 00            mov cx, 2
0x00122F:  f7 f9               idiv cx
0x00122F:  f7 f9               idiv cx
0x00122F:  f7 f9               idiv cx
0x001231:  a3 5e 39            mov word ptr [0x395e], ax
0x001231:  a3 5e 39            mov word ptr [0x395e], ax
0x001231:  a3 5e 39            mov word ptr [0x395e], ax
0x001234:  a1 54 39            mov ax, word ptr [0x3954]
0x001234:  a1 54 39            mov ax, word ptr [0x3954]
0x001234:  a1 54 39            mov ax, word ptr [0x3954]
0x001237:  a3 60 39            mov word ptr [0x3960], ax
0x001237:  a3 60 39            mov word ptr [0x3960], ax
0x001237:  a3 60 39            mov word ptr [0x3960], ax
0x00123A:  a1 58 39            mov ax, word ptr [0x3958]
0x00123A:  a1 58 39            mov ax, word ptr [0x3958]
0x00123A:  a1 58 39            mov ax, word ptr [0x3958]
0x00123D:  8b f0               mov si, ax
0x00123D:  8b f0               mov si, ax
0x00123D:  8b f0               mov si, ax
0x00123F:  d1 e0               shl ax, 1
0x00123F:  d1 e0               shl ax, 1
0x00123F:  d1 e0               shl ax, 1
0x001241:  d1 e0               shl ax, 1
0x001241:  d1 e0               shl ax, 1
0x001241:  d1 e0               shl ax, 1
0x001243:  01 f0               add ax, si
0x001243:  01 f0               add ax, si
0x001243:  01 f0               add ax, si
0x001245:  03 06 54 39         add ax, word ptr [0x3954]
0x001245:  03 06 54 39         add ax, word ptr [0x3954]
0x001245:  03 06 54 39         add ax, word ptr [0x3954]
0x001249:  05 0a 00            add ax, 0xa
0x001249:  05 0a 00            add ax, 0xa
0x001249:  05 0a 00            add ax, 0xa
0x00124C:  a3 64 39            mov word ptr [0x3964], ax
0x00124C:  a3 64 39            mov word ptr [0x3964], ax
0x00124C:  a3 64 39            mov word ptr [0x3964], ax
0x00124F:  a1 64 39            mov ax, word ptr [0x3964]
0x00124F:  a1 64 39            mov ax, word ptr [0x3964]
0x00124F:  a1 64 39            mov ax, word ptr [0x3964]
0x001252:  a3 62 39            mov word ptr [0x3962], ax
0x001252:  a3 62 39            mov word ptr [0x3962], ax
0x001252:  a3 62 39            mov word ptr [0x3962], ax
0x001255:  c6 06 66 39 00      mov byte ptr [0x3966], 0
0x001255:  c6 06 66 39 00      mov byte ptr [0x3966], 0
0x001255:  c6 06 66 39 00      mov byte ptr [0x3966], 0
0x00125A:  c6 06 67 39 00      mov byte ptr [0x3967], 0
0x00125A:  c6 06 67 39 00      mov byte ptr [0x3967], 0
0x00125A:  c6 06 67 39 00      mov byte ptr [0x3967], 0
0x00125F:  31 c0               xor ax, ax
0x00125F:  31 c0               xor ax, ax
0x00125F:  31 c0               xor ax, ax
0x001261:  a3 6c 39            mov word ptr [0x396c], ax
0x001261:  a3 6c 39            mov word ptr [0x396c], ax
0x001261:  a3 6c 39            mov word ptr [0x396c], ax
0x001264:  31 c0               xor ax, ax
0x001264:  31 c0               xor ax, ax
0x001264:  31 c0               xor ax, ax
0x001266:  a3 6a 39            mov word ptr [0x396a], ax
0x001266:  a3 6a 39            mov word ptr [0x396a], ax
0x001266:  a3 6a 39            mov word ptr [0x396a], ax
0x001269:  31 c0               xor ax, ax
0x001269:  31 c0               xor ax, ax
0x001269:  31 c0               xor ax, ax
0x00126B:  a3 6e 39            mov word ptr [0x396e], ax
0x00126B:  a3 6e 39            mov word ptr [0x396e], ax
0x00126B:  a3 6e 39            mov word ptr [0x396e], ax
0x00126E:  89 ec               mov sp, bp
0x00126E:  89 ec               mov sp, bp
0x00126E:  89 ec               mov sp, bp
0x001270:  5d                  pop bp
0x001270:  5d                  pop bp
0x001270:  5d                  pop bp
0x001271:  c2 02 00            ret 2
0x001271:  c2 02 00            ret 2
0x001271:  c2 02 00            ret 2

; === function 0x002526 (file=0x003DF6) size=125 ints=- callers=1 ===
0x002526:  55                  push bp
0x002527:  89 e5               mov bp, sp
0x002529:  b8 0c 01            mov ax, 0x10c
0x00252C:  9a cd 02 78 0f      lcall 0xf78, 0x2cd
0x002531:  81 ec 0c 01         sub sp, 0x10c
0x002535:  a1 ce 38            mov ax, word ptr [0x38ce]
0x002538:  3b 06 d0 38         cmp ax, word ptr [0x38d0]
0x00253C:  7d 03               jge 0x2541
0x00253E:  e9 80 03            jmp 0x28c1
0x002541:  31 c0               xor ax, ax
0x002543:  89 46 fe            mov word ptr [bp - 2], ax
0x002546:  a1 ce 38            mov ax, word ptr [0x38ce]
0x002546:  a1 ce 38            mov ax, word ptr [0x38ce]
0x002549:  2b 06 d0 38         sub ax, word ptr [0x38d0]
0x002549:  2b 06 d0 38         sub ax, word ptr [0x38d0]
0x00254D:  a3 ce 38            mov word ptr [0x38ce], ax
0x00254D:  a3 ce 38            mov word ptr [0x38ce], ax
0x002550:  83 06 d0 38 0a      add word ptr [0x38d0], 0xa
0x002550:  83 06 d0 38 0a      add word ptr [0x38d0], 0xa
0x002555:  ff 46 fe            inc word ptr [bp - 2]
0x002555:  ff 46 fe            inc word ptr [bp - 2]
0x002558:  a1 ce 38            mov ax, word ptr [0x38ce]
0x002558:  a1 ce 38            mov ax, word ptr [0x38ce]
0x00255B:  3b 06 d0 38         cmp ax, word ptr [0x38d0]
0x00255B:  3b 06 d0 38         cmp ax, word ptr [0x38d0]
0x00255F:  7d e5               jge 0x2546
0x00255F:  7d e5               jge 0x2546
0x002561:  8b 46 fe            mov ax, word ptr [bp - 2]
0x002561:  8b 46 fe            mov ax, word ptr [bp - 2]
0x002564:  89 46 f4            mov word ptr [bp - 0xc], ax
0x002564:  89 46 f4            mov word ptr [bp - 0xc], ax
0x002567:  b8 01 00            mov ax, 1
0x002567:  b8 01 00            mov ax, 1
0x00256A:  3b 46 f4            cmp ax, word ptr [bp - 0xc]
0x00256A:  3b 46 f4            cmp ax, word ptr [bp - 0xc]
0x00256D:  7e 03               jle 0x2572
0x00256D:  7e 03               jle 0x2572
0x00256F:  e9 2e 03            jmp 0x28a0
0x00256F:  e9 2e 03            jmp 0x28a0
0x002572:  89 46 fc            mov word ptr [bp - 4], ax
0x002575:  eb 03               jmp 0x257a

; === function 0x003D11 (file=0x0055E1) size=489 ints=- callers=1 ===
0x003D11:  55                  push bp
0x003D12:  89 e5               mov bp, sp
0x003D14:  b8 18 02            mov ax, 0x218
0x003D17:  9a cd 02 78 0f      lcall 0xf78, 0x2cd
0x003D1C:  81 ec 18 02         sub sp, 0x218
0x003D20:  c6 46 ff 00         mov byte ptr [bp - 1], 0
0x003D24:  8a 46 04            mov al, byte ptr [bp + 4]
0x003D27:  3c 00               cmp al, 0
0x003D29:  74 07               je 0x3d32
0x003D2B:  3c 06               cmp al, 6
0x003D2D:  74 03               je 0x3d32
0x003D2F:  e9 5b 01            jmp 0x3e8d
0x003D32:  a1 52 39            mov ax, word ptr [0x3952]
0x003D35:  3d 00 00            cmp ax, 0
0x003D38:  74 0a               je 0x3d44
0x003D3A:  3d 01 00            cmp ax, 1
0x003D3D:  74 05               je 0x3d44
0x003D3F:  3d 02 00            cmp ax, 2
0x003D42:  75 35               jne 0x3d79
0x003D44:  bf 5e 2c            mov di, 0x2c5e
0x003D44:  bf 5e 2c            mov di, 0x2c5e
0x003D47:  0e                  push cs
0x003D47:  0e                  push cs
0x003D48:  57                  push di
0x003D48:  57                  push di
0x003D49:  31 c0               xor ax, ax
0x003D49:  31 c0               xor ax, ax
0x003D4B:  50                  push ax
0x003D4B:  50                  push ax
0x003D4C:  31 c0               xor ax, ax
0x003D4C:  31 c0               xor ax, ax
0x003D4E:  50                  push ax
0x003D4E:  50                  push ax
0x003D4F:  31 c0               xor ax, ax
0x003D4F:  31 c0               xor ax, ax
0x003D51:  50                  push ax
0x003D51:  50                  push ax
0x003D52:  31 c0               xor ax, ax
0x003D52:  31 c0               xor ax, ax
0x003D54:  50                  push ax
0x003D54:  50                  push ax
0x003D55:  31 c0               xor ax, ax
0x003D55:  31 c0               xor ax, ax
0x003D57:  50                  push ax
0x003D57:  50                  push ax
0x003D58:  9a c2 01 ed 0e      lcall 0xeed, 0x1c2
0x003D58:  9a c2 01 ed 0e      lcall 0xeed, 0x1c2
0x003D5D:  bf 6b 2c            mov di, 0x2c6b
0x003D5D:  bf 6b 2c            mov di, 0x2c6b
0x003D60:  0e                  push cs
0x003D60:  0e                  push cs
0x003D61:  57                  push di
0x003D61:  57                  push di
0x003D62:  31 c0               xor ax, ax
0x003D62:  31 c0               xor ax, ax
0x003D64:  50                  push ax
0x003D64:  50                  push ax
0x003D65:  31 c0               xor ax, ax
0x003D65:  31 c0               xor ax, ax
0x003D67:  50                  push ax
0x003D67:  50                  push ax
0x003D68:  31 c0               xor ax, ax
0x003D68:  31 c0               xor ax, ax
0x003D6A:  50                  push ax
0x003D6A:  50                  push ax
0x003D6B:  31 c0               xor ax, ax
0x003D6B:  31 c0               xor ax, ax
0x003D6D:  50                  push ax
0x003D6D:  50                  push ax
0x003D6E:  31 c0               xor ax, ax
0x003D6E:  31 c0               xor ax, ax
0x003D70:  50                  push ax
0x003D70:  50                  push ax
0x003D71:  9a c2 01 ed 0e      lcall 0xeed, 0x1c2
0x003D71:  9a c2 01 ed 0e      lcall 0xeed, 0x1c2
0x003D76:  e9 11 01            jmp 0x3e8a
0x003D76:  e9 11 01            jmp 0x3e8a
0x003D79:  3d 03 00            cmp ax, 3
0x003D7C:  74 0f               je 0x3d8d
0x003D7E:  3d 04 00            cmp ax, 4
0x003D81:  74 0a               je 0x3d8d
0x003D83:  3d 05 00            cmp ax, 5
0x003D86:  74 05               je 0x3d8d
0x003D88:  3d 06 00            cmp ax, 6
0x003D8B:  75 35               jne 0x3dc2
0x003D8D:  bf 78 2c            mov di, 0x2c78
0x003D8D:  bf 78 2c            mov di, 0x2c78
0x003D90:  0e                  push cs
0x003D90:  0e                  push cs
0x003D91:  57                  push di
0x003D91:  57                  push di
0x003D92:  31 c0               xor ax, ax
0x003D92:  31 c0               xor ax, ax
0x003D94:  50                  push ax
0x003D94:  50                  push ax
0x003D95:  31 c0               xor ax, ax
0x003D95:  31 c0               xor ax, ax
0x003D97:  50                  push ax
0x003D97:  50                  push ax
0x003D98:  31 c0               xor ax, ax
0x003D98:  31 c0               xor ax, ax
0x003D9A:  50                  push ax
0x003D9A:  50                  push ax
0x003D9B:  31 c0               xor ax, ax
0x003D9B:  31 c0               xor ax, ax
0x003D9D:  50                  push ax
0x003D9D:  50                  push ax
0x003D9E:  31 c0               xor ax, ax
0x003D9E:  31 c0               xor ax, ax
0x003DA0:  50                  push ax
0x003DA0:  50                  push ax
0x003DA1:  9a c2 01 ed 0e      lcall 0xeed, 0x1c2
0x003DA1:  9a c2 01 ed 0e      lcall 0xeed, 0x1c2
0x003DA6:  bf 95 2c            mov di, 0x2c95
0x003DA6:  bf 95 2c            mov di, 0x2c95
0x003DA9:  0e                  push cs
0x003DA9:  0e                  push cs
0x003DAA:  57                  push di
0x003DAA:  57                  push di
0x003DAB:  31 c0               xor ax, ax
0x003DAB:  31 c0               xor ax, ax
0x003DAD:  50                  push ax
0x003DAD:  50                  push ax
0x003DAE:  31 c0               xor ax, ax
0x003DAE:  31 c0               xor ax, ax
0x003DB0:  50                  push ax
0x003DB0:  50                  push ax
0x003DB1:  31 c0               xor ax, ax
0x003DB1:  31 c0               xor ax, ax
0x003DB3:  50                  push ax
0x003DB3:  50                  push ax
0x003DB4:  31 c0               xor ax, ax
0x003DB4:  31 c0               xor ax, ax
0x003DB6:  50                  push ax
0x003DB6:  50                  push ax
0x003DB7:  31 c0               xor ax, ax
0x003DB7:  31 c0               xor ax, ax
0x003DB9:  50                  push ax
0x003DB9:  50                  push ax
0x003DBA:  9a c2 01 ed 0e      lcall 0xeed, 0x1c2
0x003DBA:  9a c2 01 ed 0e      lcall 0xeed, 0x1c2
0x003DBF:  e9 c8 00            jmp 0x3e8a
0x003DBF:  e9 c8 00            jmp 0x3e8a
0x003DC2:  3d 07 00            cmp ax, 7
0x003DC5:  75 1c               jne 0x3de3
0x003DC7:  bf aa 2c            mov di, 0x2caa
0x003DCA:  0e                  push cs
0x003DCB:  57                  push di
0x003DCC:  31 c0               xor ax, ax
0x003DCE:  50                  push ax
0x003DCF:  31 c0               xor ax, ax
0x003DD1:  50                  push ax
0x003DD2:  31 c0               xor ax, ax
0x003DD4:  50                  push ax
0x003DD5:  31 c0               xor ax, ax
0x003DD7:  50                  push ax
0x003DD8:  31 c0               xor ax, ax
0x003DDA:  50                  push ax
0x003DDB:  9a c2 01 ed 0e      lcall 0xeed, 0x1c2
0x003DE0:  e9 a7 00            jmp 0x3e8a
0x003DE3:  3d 08 00            cmp ax, 8
0x003DE6:  75 4d               jne 0x3e35
0x003DE8:  8d be e8 fd         lea di, [bp - 0x218]
0x003DEC:  16                  push ss
0x003DED:  57                  push di
0x003DEE:  bf b7 2c            mov di, 0x2cb7
0x003DF1:  0e                  push cs
0x003DF2:  57                  push di
0x003DF3:  9a e7 0a 78 0f      lcall 0xf78, 0xae7
0x003DF8:  bf 9c 37            mov di, 0x379c
0x003DFB:  1e                  push ds
0x003DFC:  57                  push di
0x003DFD:  9a 66 0b 78 0f      lcall 0xf78, 0xb66
0x003E02:  bf c7 2c            mov di, 0x2cc7
0x003E05:  0e                  push cs
0x003E06:  57                  push di
0x003E07:  9a 66 0b 78 0f      lcall 0xf78, 0xb66
0x003E0C:  8b 3e 9c 38         mov di, word ptr [0x389c]
0x003E10:  b1 08               mov cl, 8
0x003E12:  d3 e7               shl di, cl
0x003E14:  81 c7 2e 00         add di, 0x2e
0x003E18:  1e                  push ds
0x003E19:  57                  push di
0x003E1A:  9a 66 0b 78 0f      lcall 0xf78, 0xb66
0x003E1F:  31 c0               xor ax, ax
0x003E21:  50                  push ax
0x003E22:  31 c0               xor ax, ax
0x003E24:  50                  push ax
0x003E25:  31 c0               xor ax, ax
0x003E27:  50                  push ax
0x003E28:  31 c0               xor ax, ax
0x003E2A:  50                  push ax
0x003E2B:  31 c0               xor ax, ax
0x003E2D:  50                  push ax
0x003E2E:  9a c2 01 ed 0e      lcall 0xeed, 0x1c2
0x003E33:  eb 55               jmp 0x3e8a
0x003E35:  3d 09 00            cmp ax, 9
0x003E38:  75 50               jne 0x3e8a
0x003E3A:  bf d7 2c            mov di, 0x2cd7
0x003E3D:  0e                  push cs
0x003E3E:  57                  push di
0x003E3F:  31 c0               xor ax, ax
0x003E41:  50                  push ax
0x003E42:  31 c0               xor ax, ax
0x003E44:  50                  push ax
0x003E45:  31 c0               xor ax, ax
0x003E47:  50                  push ax
0x003E48:  31 c0               xor ax, ax
0x003E4A:  50                  push ax
0x003E4B:  31 c0               xor ax, ax
0x003E4D:  50                  push ax
0x003E4E:  9a c2 01 ed 0e      lcall 0xeed, 0x1c2
0x003E53:  8d be e8 fd         lea di, [bp - 0x218]
0x003E57:  16                  push ss
0x003E58:  57                  push di
0x003E59:  bf e5 2c            mov di, 0x2ce5
0x003E5C:  0e                  push cs
0x003E5D:  57                  push di
0x003E5E:  9a e7 0a 78 0f      lcall 0xf78, 0xae7
0x003E63:  8b 3e 9c 38         mov di, word ptr [0x389c]
0x003E67:  b1 08               mov cl, 8
0x003E69:  d3 e7               shl di, cl
0x003E6B:  81 c7 2e 00         add di, 0x2e
0x003E6F:  1e                  push ds
0x003E70:  57                  push di
0x003E71:  9a 66 0b 78 0f      lcall 0xf78, 0xb66
0x003E76:  31 c0               xor ax, ax
0x003E78:  50                  push ax
0x003E79:  31 c0               xor ax, ax
0x003E7B:  50                  push ax
0x003E7C:  31 c0               xor ax, ax
0x003E7E:  50                  push ax
0x003E7F:  31 c0               xor ax, ax
0x003E81:  50                  push ax
0x003E82:  31 c0               xor ax, ax
0x003E84:  50                  push ax
0x003E85:  9a c2 01 ed 0e      lcall 0xeed, 0x1c2
0x003E8A:  e9 1a 01            jmp 0x3fa7
0x003E8A:  e9 1a 01            jmp 0x3fa7

; === function 0x006A0D (file=0x0082DD) size=484 ints=- callers=1 ===
0x006A0D:  55                  push bp
0x006A0E:  89 e5               mov bp, sp
0x006A10:  b8 00 02            mov ax, 0x200
0x006A13:  9a cd 02 78 0f      lcall 0xf78, 0x2cd
0x006A18:  81 ec 00 02         sub sp, 0x200
0x006A1C:  9a cc 01 16 0f      lcall 0xf16, 0x1cc
0x006A21:  b0 00               mov al, 0
0x006A23:  50                  push ax
0x006A24:  bf 32 3d            mov di, 0x3d32
0x006A27:  1e                  push ds
0x006A28:  57                  push di
0x006A29:  b8 ff 00            mov ax, 0xff
0x006A2C:  50                  push ax
0x006A2D:  9a ec 08 78 0f      lcall 0xf78, 0x8ec
0x006A32:  8d be 00 ff         lea di, [bp - 0x100]
0x006A36:  16                  push ss
0x006A37:  57                  push di
0x006A38:  bf 32 3d            mov di, 0x3d32
0x006A3B:  1e                  push ds
0x006A3C:  57                  push di
0x006A3D:  9a e7 0a 78 0f      lcall 0xf78, 0xae7
0x006A42:  bf 3d 63            mov di, 0x633d
0x006A45:  0e                  push cs
0x006A46:  57                  push di
0x006A47:  9a 66 0b 78 0f      lcall 0xf78, 0xb66
0x006A4C:  bf 32 3d            mov di, 0x3d32
0x006A4F:  1e                  push ds
0x006A50:  57                  push di
0x006A51:  b8 ff 00            mov ax, 0xff
0x006A54:  50                  push ax
0x006A55:  9a 01 0b 78 0f      lcall 0xf78, 0xb01
0x006A5A:  e8 65 98            call 0x2c2
0x006A5D:  9a e0 11 78 0f      lcall 0xf78, 0x11e0
0x006A62:  c6 06 04 3d 00      mov byte ptr [0x3d04], 0
0x006A67:  8d be 00 ff         lea di, [bp - 0x100]
0x006A6B:  16                  push ss
0x006A6C:  57                  push di
0x006A6D:  bf 32 3d            mov di, 0x3d32
0x006A70:  1e                  push ds
0x006A71:  57                  push di
0x006A72:  9a e7 0a 78 0f      lcall 0xf78, 0xae7
0x006A77:  bf 3f 63            mov di, 0x633f
0x006A7A:  0e                  push cs
0x006A7B:  57                  push di
0x006A7C:  9a 66 0b 78 0f      lcall 0xf78, 0xb66
0x006A81:  b8 3f 00            mov ax, 0x3f
0x006A84:  50                  push ax
0x006A85:  bf 06 3d            mov di, 0x3d06
0x006A88:  1e                  push ds
0x006A89:  57                  push di
0x006A8A:  9a 00 00 e5 0e      lcall 0xee5, 0
0x006A8F:  83 3e b6 3e 00      cmp word ptr [0x3eb6], 0
0x006A8F:  83 3e b6 3e 00      cmp word ptr [0x3eb6], 0
0x006A94:  74 03               je 0x6a99
0x006A94:  74 03               je 0x6a99
0x006A96:  e9 9a 00            jmp 0x6b33
0x006A96:  e9 9a 00            jmp 0x6b33
0x006A99:  80 3e 04 3d 00      cmp byte ptr [0x3d04], 0
0x006A9E:  76 19               jbe 0x6ab9
0x006AA0:  bf 4b 63            mov di, 0x634b
0x006AA3:  0e                  push cs
0x006AA4:  57                  push di
0x006AA5:  31 c0               xor ax, ax
0x006AA7:  50                  push ax
0x006AA8:  31 c0               xor ax, ax
0x006AAA:  50                  push ax
0x006AAB:  31 c0               xor ax, ax
0x006AAD:  50                  push ax
0x006AAE:  31 c0               xor ax, ax
0x006AB0:  50                  push ax
0x006AB1:  31 c0               xor ax, ax
0x006AB3:  50                  push ax
0x006AB4:  9a c2 01 ed 0e      lcall 0xeed, 0x1c2
0x006AB9:  fe 06 04 3d         inc byte ptr [0x3d04]
0x006AB9:  fe 06 04 3d         inc byte ptr [0x3d04]
0x006ABD:  80 3e 2b 3d 30      cmp byte ptr [0x3d2b], 0x30
0x006ABD:  80 3e 2b 3d 30      cmp byte ptr [0x3d2b], 0x30
0x006AC2:  74 42               je 0x6b06
0x006AC2:  74 42               je 0x6b06
0x006AC4:  8d be 00 fe         lea di, [bp - 0x200]
0x006AC4:  8d be 00 fe         lea di, [bp - 0x200]
0x006AC8:  16                  push ss
0x006AC8:  16                  push ss
0x006AC9:  57                  push di
0x006AC9:  57                  push di
0x006ACA:  bf 51 63            mov di, 0x6351
0x006ACA:  bf 51 63            mov di, 0x6351
0x006ACD:  0e                  push cs
0x006ACD:  0e                  push cs
0x006ACE:  57                  push di
0x006ACE:  57                  push di
0x006ACF:  9a e7 0a 78 0f      lcall 0xf78, 0xae7
0x006ACF:  9a e7 0a 78 0f      lcall 0xf78, 0xae7
0x006AD4:  8d be 00 ff         lea di, [bp - 0x100]
0x006AD4:  8d be 00 ff         lea di, [bp - 0x100]
0x006AD8:  16                  push ss
0x006AD8:  16                  push ss
0x006AD9:  57                  push di
0x006AD9:  57                  push di
0x006ADA:  a0 2b 3d            mov al, byte ptr [0x3d2b]
0x006ADA:  a0 2b 3d            mov al, byte ptr [0x3d2b]
0x006ADD:  50                  push ax
0x006ADD:  50                  push ax
0x006ADE:  9a 03 0c 78 0f      lcall 0xf78, 0xc03
0x006ADE:  9a 03 0c 78 0f      lcall 0xf78, 0xc03
0x006AE3:  9a 66 0b 78 0f      lcall 0xf78, 0xb66
0x006AE3:  9a 66 0b 78 0f      lcall 0xf78, 0xb66
0x006AE8:  bf 63 63            mov di, 0x6363
0x006AE8:  bf 63 63            mov di, 0x6363
0x006AEB:  0e                  push cs
0x006AEB:  0e                  push cs
0x006AEC:  57                  push di
0x006AEC:  57                  push di
0x006AED:  9a 66 0b 78 0f      lcall 0xf78, 0xb66
0x006AED:  9a 66 0b 78 0f      lcall 0xf78, 0xb66
0x006AF2:  31 c0               xor ax, ax
0x006AF2:  31 c0               xor ax, ax
0x006AF4:  50                  push ax
0x006AF4:  50                  push ax
0x006AF5:  31 c0               xor ax, ax
0x006AF5:  31 c0               xor ax, ax
0x006AF7:  50                  push ax
0x006AF7:  50                  push ax
0x006AF8:  31 c0               xor ax, ax
0x006AF8:  31 c0               xor ax, ax
0x006AFA:  50                  push ax
0x006AFA:  50                  push ax
0x006AFB:  31 c0               xor ax, ax
0x006AFB:  31 c0               xor ax, ax
0x006AFD:  50                  push ax
0x006AFD:  50                  push ax
0x006AFE:  31 c0               xor ax, ax
0x006AFE:  31 c0               xor ax, ax
0x006B00:  50                  push ax
0x006B00:  50                  push ax
0x006B01:  9a c2 01 ed 0e      lcall 0xeed, 0x1c2
0x006B01:  9a c2 01 ed 0e      lcall 0xeed, 0x1c2
0x006B06:  80 3e 2b 3d 30      cmp byte ptr [0x3d2b], 0x30
0x006B06:  80 3e 2b 3d 30      cmp byte ptr [0x3d2b], 0x30
0x006B06:  80 3e 2b 3d 30      cmp byte ptr [0x3d2b], 0x30
0x006B0B:  75 19               jne 0x6b26
0x006B0B:  75 19               jne 0x6b26
0x006B0B:  75 19               jne 0x6b26
0x006B0D:  bf 6b 63            mov di, 0x636b
0x006B0D:  bf 6b 63            mov di, 0x636b
0x006B0D:  bf 6b 63            mov di, 0x636b
0x006B10:  0e                  push cs
0x006B10:  0e                  push cs
0x006B10:  0e                  push cs
0x006B11:  57                  push di
0x006B11:  57                  push di
0x006B11:  57                  push di
0x006B12:  31 c0               xor ax, ax
0x006B12:  31 c0               xor ax, ax
0x006B12:  31 c0               xor ax, ax
0x006B14:  50                  push ax
0x006B14:  50                  push ax
0x006B14:  50                  push ax
0x006B15:  31 c0               xor ax, ax
0x006B15:  31 c0               xor ax, ax
0x006B15:  31 c0               xor ax, ax
0x006B17:  50                  push ax
0x006B17:  50                  push ax
0x006B17:  50                  push ax
0x006B18:  31 c0               xor ax, ax
0x006B18:  31 c0               xor ax, ax
0x006B18:  31 c0               xor ax, ax
0x006B1A:  50                  push ax
0x006B1A:  50                  push ax
0x006B1A:  50                  push ax
0x006B1B:  31 c0               xor ax, ax
0x006B1B:  31 c0               xor ax, ax
0x006B1B:  31 c0               xor ax, ax
0x006B1D:  50                  push ax
0x006B1D:  50                  push ax
0x006B1D:  50                  push ax
0x006B1E:  31 c0               xor ax, ax
0x006B1E:  31 c0               xor ax, ax
0x006B1E:  31 c0               xor ax, ax
0x006B20:  50                  push ax
0x006B20:  50                  push ax
0x006B20:  50                  push ax
0x006B21:  9a c2 01 ed 0e      lcall 0xeed, 0x1c2
0x006B21:  9a c2 01 ed 0e      lcall 0xeed, 0x1c2
0x006B21:  9a c2 01 ed 0e      lcall 0xeed, 0x1c2
0x006B26:  bf 06 3d            mov di, 0x3d06
0x006B26:  bf 06 3d            mov di, 0x3d06
0x006B26:  bf 06 3d            mov di, 0x3d06
0x006B26:  bf 06 3d            mov di, 0x3d06
0x006B29:  1e                  push ds
0x006B29:  1e                  push ds
0x006B29:  1e                  push ds
0x006B29:  1e                  push ds
0x006B2A:  57                  push di
0x006B2A:  57                  push di
0x006B2A:  57                  push di
0x006B2A:  57                  push di
0x006B2B:  9a 3e 00 e5 0e      lcall 0xee5, 0x3e
0x006B2B:  9a 3e 00 e5 0e      lcall 0xee5, 0x3e
0x006B2B:  9a 3e 00 e5 0e      lcall 0xee5, 0x3e
0x006B2B:  9a 3e 00 e5 0e      lcall 0xee5, 0x3e
0x006B30:  e9 5c ff            jmp 0x6a8f
0x006B30:  e9 5c ff            jmp 0x6a8f
0x006B30:  e9 5c ff            jmp 0x6a8f
0x006B30:  e9 5c ff            jmp 0x6a8f

; === function 0x007538 (file=0x008E08) size=524 ints=- callers=1 ===
0x007538:  55                  push bp
0x007539:  89 e5               mov bp, sp
0x00753B:  b8 00 02            mov ax, 0x200
0x00753E:  9a cd 02 78 0f      lcall 0xf78, 0x2cd
0x007543:  81 ec 00 02         sub sp, 0x200
0x007547:  bf ee 73            mov di, 0x73ee
0x00754A:  0e                  push cs
0x00754B:  57                  push di
0x00754C:  31 c0               xor ax, ax
0x00754E:  50                  push ax
0x00754F:  31 c0               xor ax, ax
0x007551:  50                  push ax
0x007552:  31 c0               xor ax, ax
0x007554:  50                  push ax
0x007555:  31 c0               xor ax, ax
0x007557:  50                  push ax
0x007558:  31 c0               xor ax, ax
0x00755A:  50                  push ax
0x00755B:  9a c2 01 ed 0e      lcall 0xeed, 0x1c2
0x007560:  9a 1a 03 16 0f      lcall 0xf16, 0x31a
0x007565:  bf 25 74            mov di, 0x7425
0x007568:  0e                  push cs
0x007569:  57                  push di
0x00756A:  31 c0               xor ax, ax
0x00756C:  50                  push ax
0x00756D:  31 c0               xor ax, ax
0x00756F:  50                  push ax
0x007570:  31 c0               xor ax, ax
0x007572:  50                  push ax
0x007573:  31 c0               xor ax, ax
0x007575:  50                  push ax
0x007576:  31 c0               xor ax, ax
0x007578:  50                  push ax
0x007579:  9a c2 01 ed 0e      lcall 0xeed, 0x1c2
0x00757E:  9a 1a 03 16 0f      lcall 0xf16, 0x31a
0x007583:  bf 5d 74            mov di, 0x745d
0x007586:  0e                  push cs
0x007587:  57                  push di
0x007588:  a0 92 36            mov al, byte ptr [0x3692]
0x00758B:  30 e4               xor ah, ah
0x00758D:  ba 19 00            mov dx, 0x19
0x007590:  f7 e2               mul dx
0x007592:  50                  push ax
0x007593:  31 c0               xor ax, ax
0x007595:  50                  push ax
0x007596:  31 c0               xor ax, ax
0x007598:  50                  push ax
0x007599:  31 c0               xor ax, ax
0x00759B:  50                  push ax
0x00759C:  31 c0               xor ax, ax
0x00759E:  50                  push ax
0x00759F:  9a c2 01 ed 0e      lcall 0xeed, 0x1c2
0x0075A4:  9a 1a 03 16 0f      lcall 0xf16, 0x31a
0x0075A9:  bf 92 74            mov di, 0x7492
0x0075AC:  0e                  push cs
0x0075AD:  57                  push di
0x0075AE:  31 c0               xor ax, ax
0x0075B0:  50                  push ax
0x0075B1:  31 c0               xor ax, ax
0x0075B3:  50                  push ax
0x0075B4:  31 c0               xor ax, ax
0x0075B6:  50                  push ax
0x0075B7:  31 c0               xor ax, ax
0x0075B9:  50                  push ax
0x0075BA:  31 c0               xor ax, ax
0x0075BC:  50                  push ax
0x0075BD:  9a c2 01 ed 0e      lcall 0xeed, 0x1c2
0x0075C2:  bf cc 3e            mov di, 0x3ecc
0x0075C5:  1e                  push ds
0x0075C6:  57                  push di
0x0075C7:  8d be 00 ff         lea di, [bp - 0x100]
0x0075CB:  16                  push ss
0x0075CC:  57                  push di
0x0075CD:  b8 ff 00            mov ax, 0xff
0x0075D0:  50                  push ax
0x0075D1:  9a c6 06 78 0f      lcall 0xf78, 0x6c6
0x0075D6:  9a 9d 05 78 0f      lcall 0xf78, 0x59d
0x0075DB:  9a 91 02 78 0f      lcall 0xf78, 0x291
0x0075E0:  8d be 00 ff         lea di, [bp - 0x100]
0x0075E4:  16                  push ss
0x0075E5:  57                  push di
0x0075E6:  9a 16 02 ed 0e      lcall 0xeed, 0x216
0x0075EB:  8d be 00 ff         lea di, [bp - 0x100]
0x0075EF:  16                  push ss
0x0075F0:  57                  push di
0x0075F1:  bf a9 74            mov di, 0x74a9
0x0075F4:  0e                  push cs
0x0075F5:  57                  push di
0x0075F6:  9a d8 0b 78 0f      lcall 0xf78, 0xbd8
0x0075FB:  74 03               je 0x7600
0x0075FD:  e9 5f 01            jmp 0x775f
0x007600:  a0 92 36            mov al, byte ptr [0x3692]
0x007603:  30 e4               xor ah, ah
0x007605:  ba 32 00            mov dx, 0x32
0x007608:  f7 e2               mul dx
0x00760A:  3b 06 c7 38         cmp ax, word ptr [0x38c7]
0x00760E:  7e 03               jle 0x7613
0x007610:  e9 31 01            jmp 0x7744
0x007613:  a0 92 36            mov al, byte ptr [0x3692]
0x007616:  30 e4               xor ah, ah
0x007618:  ba 32 00            mov dx, 0x32
0x00761B:  f7 e2               mul dx
0x00761D:  29 06 c7 38         sub word ptr [0x38c7], ax
0x007621:  bf 84 3c            mov di, 0x3c84
0x007624:  1e                  push ds
0x007625:  57                  push di
0x007626:  8d be 00 fe         lea di, [bp - 0x200]
0x00762A:  16                  push ss
0x00762B:  57                  push di
0x00762C:  bf 32 3d            mov di, 0x3d32
0x00762F:  1e                  push ds
0x007630:  57                  push di
0x007631:  9a e7 0a 78 0f      lcall 0xf78, 0xae7
0x007636:  bf ab 74            mov di, 0x74ab
0x007639:  0e                  push cs
0x00763A:  57                  push di
0x00763B:  9a 66 0b 78 0f      lcall 0xf78, 0xb66
0x007640:  9a 2e 07 78 0f      lcall 0xf78, 0x72e
0x007645:  bf 84 3c            mov di, 0x3c84
0x007648:  1e                  push ds
0x007649:  57                  push di
0x00764A:  b8 b6 02            mov ax, 0x2b6
0x00764D:  50                  push ax
0x00764E:  9a 72 07 78 0f      lcall 0xf78, 0x772
0x007653:  bf 84 3c            mov di, 0x3c84
0x007656:  1e                  push ds
0x007657:  57                  push di
0x007658:  bf 9c 36            mov di, 0x369c
0x00765B:  1e                  push ds
0x00765C:  57                  push di
0x00765D:  9a 25 08 78 0f      lcall 0xf78, 0x825
0x007662:  83 c4 04            add sp, 4
0x007665:  bf 84 3c            mov di, 0x3c84
0x007668:  1e                  push ds
0x007669:  57                  push di
0x00766A:  9a ea 07 78 0f      lcall 0xf78, 0x7ea
0x00766F:  bf 36 3e            mov di, 0x3e36
0x007672:  1e                  push ds
0x007673:  57                  push di
0x007674:  8d be 00 fe         lea di, [bp - 0x200]
0x007678:  16                  push ss
0x007679:  57                  push di
0x00767A:  bf 32 3d            mov di, 0x3d32
0x00767D:  1e                  push ds
0x00767E:  57                  push di
0x00767F:  9a e7 0a 78 0f      lcall 0xf78, 0xae7
0x007684:  bf b7 74            mov di, 0x74b7
0x007687:  0e                  push cs
0x007688:  57                  push di
0x007689:  9a 66 0b 78 0f      lcall 0xf78, 0xb66
0x00768E:  9a 2e 07 78 0f      lcall 0xf78, 0x72e
0x007693:  bf 36 3e            mov di, 0x3e36
0x007696:  1e                  push ds
0x007697:  57                  push di
0x007698:  b8 01 00            mov ax, 1
0x00769B:  50                  push ax
0x00769C:  9a 72 07 78 0f      lcall 0xf78, 0x772
0x0076A1:  bf 36 3e            mov di, 0x3e36
0x0076A4:  1e                  push ds
0x0076A5:  57                  push di
0x0076A6:  bf 94 36            mov di, 0x3694
0x0076A9:  1e                  push ds
0x0076AA:  57                  push di
0x0076AB:  9a 25 08 78 0f      lcall 0xf78, 0x825
0x0076B0:  83 c4 04            add sp, 4
0x0076B3:  bf 36 3e            mov di, 0x3e36
0x0076B6:  1e                  push ds
0x0076B7:  57                  push di
0x0076B8:  bf 95 36            mov di, 0x3695
0x0076BB:  1e                  push ds
0x0076BC:  57                  push di
0x0076BD:  9a 25 08 78 0f      lcall 0xf78, 0x825
0x0076C2:  83 c4 04            add sp, 4
0x0076C5:  bf 36 3e            mov di, 0x3e36
0x0076C8:  1e                  push ds
0x0076C9:  57                  push di
0x0076CA:  bf 96 36            mov di, 0x3696
0x0076CD:  1e                  push ds
0x0076CE:  57                  push di
0x0076CF:  9a 25 08 78 0f      lcall 0xf78, 0x825
0x0076D4:  83 c4 04            add sp, 4
0x0076D7:  bf 36 3e            mov di, 0x3e36
0x0076DA:  1e                  push ds
0x0076DB:  57                  push di
0x0076DC:  bf 97 36            mov di, 0x3697
0x0076DF:  1e                  push ds
0x0076E0:  57                  push di
0x0076E1:  9a 25 08 78 0f      lcall 0xf78, 0x825
0x0076E6:  83 c4 04            add sp, 4
0x0076E9:  bf 36 3e            mov di, 0x3e36
0x0076EC:  1e                  push ds
0x0076ED:  57                  push di
0x0076EE:  bf 98 36            mov di, 0x3698
0x0076F1:  1e                  push ds
0x0076F2:  57                  push di
0x0076F3:  9a 25 08 78 0f      lcall 0xf78, 0x825
0x0076F8:  83 c4 04            add sp, 4
0x0076FB:  bf 36 3e            mov di, 0x3e36
0x0076FE:  1e                  push ds
0x0076FF:  57                  push di
0x007700:  bf 99 36            mov di, 0x3699
0x007703:  1e                  push ds
0x007704:  57                  push di
0x007705:  9a 25 08 78 0f      lcall 0xf78, 0x825
0x00770A:  83 c4 04            add sp, 4
0x00770D:  bf 36 3e            mov di, 0x3e36
0x007710:  1e                  push ds
0x007711:  57                  push di
0x007712:  bf 9a 36            mov di, 0x369a
0x007715:  1e                  push ds
0x007716:  57                  push di
0x007717:  9a 25 08 78 0f      lcall 0xf78, 0x825
0x00771C:  83 c4 04            add sp, 4
0x00771F:  bf 36 3e            mov di, 0x3e36
0x007722:  1e                  push ds
0x007723:  57                  push di
0x007724:  9a ea 07 78 0f      lcall 0xf78, 0x7ea
0x007729:  bf c2 74            mov di, 0x74c2
0x00772C:  0e                  push cs
0x00772D:  57                  push di
0x00772E:  31 c0               xor ax, ax
0x007730:  50                  push ax
0x007731:  31 c0               xor ax, ax
0x007733:  50                  push ax
0x007734:  31 c0               xor ax, ax
0x007736:  50                  push ax
0x007737:  31 c0               xor ax, ax
0x007739:  50                  push ax
0x00773A:  31 c0               xor ax, ax
0x00773C:  50                  push ax
0x00773D:  9a c2 01 ed 0e      lcall 0xeed, 0x1c2
0x007742:  eb 19               jmp 0x775d

; === function 0x007C67 (file=0x009537) size=918 ints=- callers=1 ===
0x007C67:  55                  push bp
0x007C68:  89 e5               mov bp, sp
0x007C6A:  b8 00 01            mov ax, 0x100
0x007C6D:  9a cd 02 78 0f      lcall 0xf78, 0x2cd
0x007C72:  81 ec 00 01         sub sp, 0x100
0x007C76:  80 3e 51 39 02      cmp byte ptr [0x3951], 2
0x007C7B:  75 6e               jne 0x7ceb
0x007C7D:  bf 7c 77            mov di, 0x777c
0x007C80:  0e                  push cs
0x007C81:  57                  push di
0x007C82:  31 c0               xor ax, ax
0x007C84:  50                  push ax
0x007C85:  31 c0               xor ax, ax
0x007C87:  50                  push ax
0x007C88:  31 c0               xor ax, ax
0x007C8A:  50                  push ax
0x007C8B:  31 c0               xor ax, ax
0x007C8D:  50                  push ax
0x007C8E:  31 c0               xor ax, ax
0x007C90:  50                  push ax
0x007C91:  9a c2 01 ed 0e      lcall 0xeed, 0x1c2
0x007C96:  bf b3 77            mov di, 0x77b3
0x007C99:  0e                  push cs
0x007C9A:  57                  push di
0x007C9B:  31 c0               xor ax, ax
0x007C9D:  50                  push ax
0x007C9E:  31 c0               xor ax, ax
0x007CA0:  50                  push ax
0x007CA1:  31 c0               xor ax, ax
0x007CA3:  50                  push ax
0x007CA4:  31 c0               xor ax, ax
0x007CA6:  50                  push ax
0x007CA7:  31 c0               xor ax, ax
0x007CA9:  50                  push ax
0x007CAA:  9a c2 01 ed 0e      lcall 0xeed, 0x1c2
0x007CAF:  9a 1a 03 16 0f      lcall 0xf16, 0x31a
0x007CB4:  bf cf 77            mov di, 0x77cf
0x007CB7:  0e                  push cs
0x007CB8:  57                  push di
0x007CB9:  31 c0               xor ax, ax
0x007CBB:  50                  push ax
0x007CBC:  31 c0               xor ax, ax
0x007CBE:  50                  push ax
0x007CBF:  31 c0               xor ax, ax
0x007CC1:  50                  push ax
0x007CC2:  31 c0               xor ax, ax
0x007CC4:  50                  push ax
0x007CC5:  31 c0               xor ax, ax
0x007CC7:  50                  push ax
0x007CC8:  9a c2 01 ed 0e      lcall 0xeed, 0x1c2
0x007CCD:  bf e4 77            mov di, 0x77e4
0x007CD0:  0e                  push cs
0x007CD1:  57                  push di
0x007CD2:  31 c0               xor ax, ax
0x007CD4:  50                  push ax
0x007CD5:  31 c0               xor ax, ax
0x007CD7:  50                  push ax
0x007CD8:  31 c0               xor ax, ax
0x007CDA:  50                  push ax
0x007CDB:  31 c0               xor ax, ax
0x007CDD:  50                  push ax
0x007CDE:  31 c0               xor ax, ax
0x007CE0:  50                  push ax
0x007CE1:  9a c2 01 ed 0e      lcall 0xeed, 0x1c2
0x007CE6:  9a 1a 03 16 0f      lcall 0xf16, 0x31a
0x007CEB:  80 3e 51 39 01      cmp byte ptr [0x3951], 1
0x007CEB:  80 3e 51 39 01      cmp byte ptr [0x3951], 1
0x007CF0:  74 03               je 0x7cf5
0x007CF0:  74 03               je 0x7cf5
0x007CF2:  e9 d6 00            jmp 0x7dcb
0x007CF2:  e9 d6 00            jmp 0x7dcb
0x007CF5:  bf 7c 77            mov di, 0x777c
0x007CF8:  0e                  push cs
0x007CF9:  57                  push di
0x007CFA:  31 c0               xor ax, ax
0x007CFC:  50                  push ax
0x007CFD:  31 c0               xor ax, ax
0x007CFF:  50                  push ax
0x007D00:  31 c0               xor ax, ax
0x007D02:  50                  push ax
0x007D03:  31 c0               xor ax, ax
0x007D05:  50                  push ax
0x007D06:  31 c0               xor ax, ax
0x007D08:  50                  push ax
0x007D09:  9a c2 01 ed 0e      lcall 0xeed, 0x1c2
0x007D0E:  9a 1a 03 16 0f      lcall 0xf16, 0x31a
0x007D13:  bf b3 77            mov di, 0x77b3
0x007D16:  0e                  push cs
0x007D17:  57                  push di
0x007D18:  31 c0               xor ax, ax
0x007D1A:  50                  push ax
0x007D1B:  31 c0               xor ax, ax
0x007D1D:  50                  push ax
0x007D1E:  31 c0               xor ax, ax
0x007D20:  50                  push ax
0x007D21:  31 c0               xor ax, ax
0x007D23:  50                  push ax
0x007D24:  31 c0               xor ax, ax
0x007D26:  50                  push ax
0x007D27:  9a c2 01 ed 0e      lcall 0xeed, 0x1c2
0x007D2C:  9a 1a 03 16 0f      lcall 0xf16, 0x31a
0x007D31:  bf 10 78            mov di, 0x7810
0x007D34:  0e                  push cs
0x007D35:  57                  push di
0x007D36:  31 c0               xor ax, ax
0x007D38:  50                  push ax
0x007D39:  31 c0               xor ax, ax
0x007D3B:  50                  push ax
0x007D3C:  31 c0               xor ax, ax
0x007D3E:  50                  push ax
0x007D3F:  31 c0               xor ax, ax
0x007D41:  50                  push ax
0x007D42:  31 c0               xor ax, ax
0x007D44:  50                  push ax
0x007D45:  9a c2 01 ed 0e      lcall 0xeed, 0x1c2
0x007D4A:  9a 1a 03 16 0f      lcall 0xf16, 0x31a
0x007D4F:  bf 57 78            mov di, 0x7857
0x007D52:  0e                  push cs
0x007D53:  57                  push di
0x007D54:  31 c0               xor ax, ax
0x007D56:  50                  push ax
0x007D57:  31 c0               xor ax, ax
0x007D59:  50                  push ax
0x007D5A:  31 c0               xor ax, ax
0x007D5C:  50                  push ax
0x007D5D:  31 c0               xor ax, ax
0x007D5F:  50                  push ax
0x007D60:  31 c0               xor ax, ax
0x007D62:  50                  push ax
0x007D63:  9a c2 01 ed 0e      lcall 0xeed, 0x1c2
0x007D68:  9a 1a 03 16 0f      lcall 0xf16, 0x31a
0x007D6D:  bf 7d 78            mov di, 0x787d
0x007D70:  0e                  push cs
0x007D71:  57                  push di
0x007D72:  31 c0               xor ax, ax
0x007D74:  50                  push ax
0x007D75:  31 c0               xor ax, ax
0x007D77:  50                  push ax
0x007D78:  31 c0               xor ax, ax
0x007D7A:  50                  push ax
0x007D7B:  31 c0               xor ax, ax
0x007D7D:  50                  push ax
0x007D7E:  31 c0               xor ax, ax
0x007D80:  50                  push ax
0x007D81:  9a c2 01 ed 0e      lcall 0xeed, 0x1c2
0x007D86:  9a 1a 03 16 0f      lcall 0xf16, 0x31a
0x007D8B:  bf a9 78            mov di, 0x78a9
0x007D8E:  0e                  push cs
0x007D8F:  57                  push di
0x007D90:  31 c0               xor ax, ax
0x007D92:  50                  push ax
0x007D93:  31 c0               xor ax, ax
0x007D95:  50                  push ax
0x007D96:  31 c0               xor ax, ax
0x007D98:  50                  push ax
0x007D99:  31 c0               xor ax, ax
0x007D9B:  50                  push ax
0x007D9C:  31 c0               xor ax, ax
0x007D9E:  50                  push ax
0x007D9F:  9a c2 01 ed 0e      lcall 0xeed, 0x1c2
0x007DA4:  9a 1a 03 16 0f      lcall 0xf16, 0x31a
0x007DA9:  bf ca 78            mov di, 0x78ca
0x007DAC:  0e                  push cs
0x007DAD:  57                  push di
0x007DAE:  31 c0               xor ax, ax
0x007DB0:  50                  push ax
0x007DB1:  31 c0               xor ax, ax
0x007DB3:  50                  push ax
0x007DB4:  31 c0               xor ax, ax
0x007DB6:  50                  push ax
0x007DB7:  31 c0               xor ax, ax
0x007DB9:  50                  push ax
0x007DBA:  31 c0               xor ax, ax
0x007DBC:  50                  push ax
0x007DBD:  9a c2 01 ed 0e      lcall 0xeed, 0x1c2
0x007DC2:  9a 1a 03 16 0f      lcall 0xf16, 0x31a
0x007DC7:  fe 06 51 39         inc byte ptr [0x3951]
0x007DCB:  80 3e 51 39 00      cmp byte ptr [0x3951], 0
0x007DD0:  74 03               je 0x7dd5
0x007DD2:  e9 8a 01            jmp 0x7f5f
0x007DD5:  bf 7c 77            mov di, 0x777c
0x007DD8:  0e                  push cs
0x007DD9:  57                  push di
0x007DDA:  31 c0               xor ax, ax
0x007DDC:  50                  push ax
0x007DDD:  31 c0               xor ax, ax
0x007DDF:  50                  push ax
0x007DE0:  31 c0               xor ax, ax
0x007DE2:  50                  push ax
0x007DE3:  31 c0               xor ax, ax
0x007DE5:  50                  push ax
0x007DE6:  31 c0               xor ax, ax
0x007DE8:  50                  push ax
0x007DE9:  9a c2 01 ed 0e      lcall 0xeed, 0x1c2
0x007DEE:  9a 1a 03 16 0f      lcall 0xf16, 0x31a
0x007DF3:  bf b3 77            mov di, 0x77b3
0x007DF6:  0e                  push cs
0x007DF7:  57                  push di
0x007DF8:  31 c0               xor ax, ax
0x007DFA:  50                  push ax
0x007DFB:  31 c0               xor ax, ax
0x007DFD:  50                  push ax
0x007DFE:  31 c0               xor ax, ax
0x007E00:  50                  push ax
0x007E01:  31 c0               xor ax, ax
0x007E03:  50                  push ax
0x007E04:  31 c0               xor ax, ax
0x007E06:  50                  push ax
0x007E07:  9a c2 01 ed 0e      lcall 0xeed, 0x1c2
0x007E0C:  9a 1a 03 16 0f      lcall 0xf16, 0x31a
0x007E11:  bf 04 79            mov di, 0x7904
0x007E14:  0e                  push cs
0x007E15:  57                  push di
0x007E16:  31 c0               xor ax, ax
0x007E18:  50                  push ax
0x007E19:  31 c0               xor ax, ax
0x007E1B:  50                  push ax
0x007E1C:  31 c0               xor ax, ax
0x007E1E:  50                  push ax
0x007E1F:  31 c0               xor ax, ax
0x007E21:  50                  push ax
0x007E22:  31 c0               xor ax, ax
0x007E24:  50                  push ax
0x007E25:  9a c2 01 ed 0e      lcall 0xeed, 0x1c2
0x007E2A:  9a 1a 03 16 0f      lcall 0xf16, 0x31a
0x007E2F:  bf 17 79            mov di, 0x7917
0x007E32:  0e                  push cs
0x007E33:  57                  push di
0x007E34:  31 c0               xor ax, ax
0x007E36:  50                  push ax
0x007E37:  31 c0               xor ax, ax
0x007E39:  50                  push ax
0x007E3A:  31 c0               xor ax, ax
0x007E3C:  50                  push ax
0x007E3D:  31 c0               xor ax, ax
0x007E3F:  50                  push ax
0x007E40:  31 c0               xor ax, ax
0x007E42:  50                  push ax
0x007E43:  9a c2 01 ed 0e      lcall 0xeed, 0x1c2
0x007E48:  9a 1a 03 16 0f      lcall 0xf16, 0x31a
0x007E4D:  bf 4a 79            mov di, 0x794a
0x007E50:  0e                  push cs
0x007E51:  57                  push di
0x007E52:  31 c0               xor ax, ax
0x007E54:  50                  push ax
0x007E55:  31 c0               xor ax, ax
0x007E57:  50                  push ax
0x007E58:  31 c0               xor ax, ax
0x007E5A:  50                  push ax
0x007E5B:  31 c0               xor ax, ax
0x007E5D:  50                  push ax
0x007E5E:  31 c0               xor ax, ax
0x007E60:  50                  push ax
0x007E61:  9a c2 01 ed 0e      lcall 0xeed, 0x1c2
0x007E66:  9a 1a 03 16 0f      lcall 0xf16, 0x31a
0x007E6B:  bf 64 79            mov di, 0x7964
0x007E6E:  0e                  push cs
0x007E6F:  57                  push di
0x007E70:  31 c0               xor ax, ax
0x007E72:  50                  push ax
0x007E73:  31 c0               xor ax, ax
0x007E75:  50                  push ax
0x007E76:  31 c0               xor ax, ax
0x007E78:  50                  push ax
0x007E79:  31 c0               xor ax, ax
0x007E7B:  50                  push ax
0x007E7C:  31 c0               xor ax, ax
0x007E7E:  50                  push ax
0x007E7F:  9a c2 01 ed 0e      lcall 0xeed, 0x1c2
0x007E84:  9a 1a 03 16 0f      lcall 0xf16, 0x31a
0x007E89:  bf 9d 79            mov di, 0x799d
0x007E8C:  0e                  push cs
0x007E8D:  57                  push di
0x007E8E:  31 c0               xor ax, ax
0x007E90:  50                  push ax
0x007E91:  31 c0               xor ax, ax
0x007E93:  50                  push ax
0x007E94:  31 c0               xor ax, ax
0x007E96:  50                  push ax
0x007E97:  31 c0               xor ax, ax
0x007E99:  50                  push ax
0x007E9A:  31 c0               xor ax, ax
0x007E9C:  50                  push ax
0x007E9D:  9a c2 01 ed 0e      lcall 0xeed, 0x1c2
0x007EA2:  9a 1a 03 16 0f      lcall 0xf16, 0x31a
0x007EA7:  bf c6 79            mov di, 0x79c6
0x007EAA:  0e                  push cs
0x007EAB:  57                  push di
0x007EAC:  31 c0               xor ax, ax
0x007EAE:  50                  push ax
0x007EAF:  31 c0               xor ax, ax
0x007EB1:  50                  push ax
0x007EB2:  31 c0               xor ax, ax
0x007EB4:  50                  push ax
0x007EB5:  31 c0               xor ax, ax
0x007EB7:  50                  push ax
0x007EB8:  31 c0               xor ax, ax
0x007EBA:  50                  push ax
0x007EBB:  9a c2 01 ed 0e      lcall 0xeed, 0x1c2
0x007EC0:  9a 1a 03 16 0f      lcall 0xf16, 0x31a
0x007EC5:  8d be 00 ff         lea di, [bp - 0x100]
0x007EC9:  16                  push ss
0x007ECA:  57                  push di
0x007ECB:  bf e0 79            mov di, 0x79e0
0x007ECE:  0e                  push cs
0x007ECF:  57                  push di
0x007ED0:  9a e7 0a 78 0f      lcall 0xf78, 0xae7
0x007ED5:  bf 9c 37            mov di, 0x379c
0x007ED8:  1e                  push ds
0x007ED9:  57                  push di
0x007EDA:  9a 66 0b 78 0f      lcall 0xf78, 0xb66
0x007EDF:  bf f4 79            mov di, 0x79f4
0x007EE2:  0e                  push cs
0x007EE3:  57                  push di
0x007EE4:  9a 66 0b 78 0f      lcall 0xf78, 0xb66
0x007EE9:  8b 3e 9c 38         mov di, word ptr [0x389c]
0x007EED:  b1 08               mov cl, 8
0x007EEF:  d3 e7               shl di, cl
0x007EF1:  81 c7 2e 00         add di, 0x2e
0x007EF5:  1e                  push ds
0x007EF6:  57                  push di
0x007EF7:  9a 66 0b 78 0f      lcall 0xf78, 0xb66
0x007EFC:  bf f8 79            mov di, 0x79f8
0x007EFF:  0e                  push cs
0x007F00:  57                  push di
0x007F01:  9a 66 0b 78 0f      lcall 0xf78, 0xb66
0x007F06:  31 c0               xor ax, ax
0x007F08:  50                  push ax
0x007F09:  31 c0               xor ax, ax
0x007F0B:  50                  push ax
0x007F0C:  31 c0               xor ax, ax
0x007F0E:  50                  push ax
0x007F0F:  31 c0               xor ax, ax
0x007F11:  50                  push ax
0x007F12:  31 c0               xor ax, ax
0x007F14:  50                  push ax
0x007F15:  9a c2 01 ed 0e      lcall 0xeed, 0x1c2
0x007F1A:  9a 1a 03 16 0f      lcall 0xf16, 0x31a
0x007F1F:  bf 01 7a            mov di, 0x7a01
0x007F22:  0e                  push cs
0x007F23:  57                  push di
0x007F24:  31 c0               xor ax, ax
0x007F26:  50                  push ax
0x007F27:  31 c0               xor ax, ax
0x007F29:  50                  push ax
0x007F2A:  31 c0               xor ax, ax
0x007F2C:  50                  push ax
0x007F2D:  31 c0               xor ax, ax
0x007F2F:  50                  push ax
0x007F30:  31 c0               xor ax, ax
0x007F32:  50                  push ax
0x007F33:  9a c2 01 ed 0e      lcall 0xeed, 0x1c2
0x007F38:  9a 1a 03 16 0f      lcall 0xf16, 0x31a
0x007F3D:  bf 08 7a            mov di, 0x7a08
0x007F40:  0e                  push cs
0x007F41:  57                  push di
0x007F42:  31 c0               xor ax, ax
0x007F44:  50                  push ax
0x007F45:  31 c0               xor ax, ax
0x007F47:  50                  push ax
0x007F48:  31 c0               xor ax, ax
0x007F4A:  50                  push ax
0x007F4B:  31 c0               xor ax, ax
0x007F4D:  50                  push ax
0x007F4E:  31 c0               xor ax, ax
0x007F50:  50                  push ax
0x007F51:  9a c2 01 ed 0e      lcall 0xeed, 0x1c2
0x007F56:  9a 1a 03 16 0f      lcall 0xf16, 0x31a
0x007F5B:  fe 06 51 39         inc byte ptr [0x3951]
0x007F5F:  b8 05 00            mov ax, 5
0x007F62:  50                  push ax
0x007F63:  9a 4b 11 78 0f      lcall 0xf78, 0x114b
0x007F68:  3d 00 00            cmp ax, 0
0x007F6B:  74 03               je 0x7f70
0x007F6D:  e9 83 00            jmp 0x7ff3
0x007F70:  bf 3c 7a            mov di, 0x7a3c
0x007F73:  0e                  push cs
0x007F74:  57                  push di
0x007F75:  31 c0               xor ax, ax
0x007F77:  50                  push ax
0x007F78:  31 c0               xor ax, ax
0x007F7A:  50                  push ax
0x007F7B:  31 c0               xor ax, ax
0x007F7D:  50                  push ax
0x007F7E:  31 c0               xor ax, ax
0x007F80:  50                  push ax
0x007F81:  31 c0               xor ax, ax
0x007F83:  50                  push ax
0x007F84:  9a c2 01 ed 0e      lcall 0xeed, 0x1c2
0x007F89:  9a 1a 03 16 0f      lcall 0xf16, 0x31a
0x007F8E:  8d be 00 ff         lea di, [bp - 0x100]
0x007F92:  16                  push ss
0x007F93:  57                  push di
0x007F94:  bf 5d 7a            mov di, 0x7a5d
0x007F97:  0e                  push cs
0x007F98:  57                  push di
0x007F99:  9a e7 0a 78 0f      lcall 0xf78, 0xae7
0x007F9E:  8b 3e a6 38         mov di, word ptr [0x38a6]
0x007FA2:  b1 08               mov cl, 8
0x007FA4:  d3 e7               shl di, cl
0x007FA6:  81 c7 42 0b         add di, 0xb42
0x007FAA:  1e                  push ds
0x007FAB:  57                  push di
0x007FAC:  9a 66 0b 78 0f      lcall 0xf78, 0xb66
0x007FB1:  bf 67 7a            mov di, 0x7a67
0x007FB4:  0e                  push cs
0x007FB5:  57                  push di
0x007FB6:  9a 66 0b 78 0f      lcall 0xf78, 0xb66
0x007FBB:  a1 a6 38            mov ax, word ptr [0x38a6]
0x007FBE:  40                  inc ax
0x007FBF:  8b f8               mov di, ax
0x007FC1:  b1 08               mov cl, 8
0x007FC3:  d3 e7               shl di, cl
0x007FC5:  81 c7 42 0b         add di, 0xb42
0x007FC9:  1e                  push ds
0x007FCA:  57                  push di
0x007FCB:  9a 66 0b 78 0f      lcall 0xf78, 0xb66
0x007FD0:  31 c0               xor ax, ax
0x007FD2:  50                  push ax
0x007FD3:  31 c0               xor ax, ax
0x007FD5:  50                  push ax
0x007FD6:  31 c0               xor ax, ax
0x007FD8:  50                  push ax
0x007FD9:  31 c0               xor ax, ax
0x007FDB:  50                  push ax
0x007FDC:  31 c0               xor ax, ax
0x007FDE:  50                  push ax
0x007FDF:  9a c2 01 ed 0e      lcall 0xeed, 0x1c2
0x007FE4:  a1 d0 38            mov ax, word ptr [0x38d0]
0x007FE7:  a3 ce 38            mov word ptr [0x38ce], ax
0x007FEA:  b0 00               mov al, 0
0x007FEC:  50                  push ax
0x007FED:  e8 36 a5            call 0x2526
0x007FF0:  e9 4f 02            jmp 0x8242

; === function 0x00AB59 (file=0x00C429) size=8281 ints=- callers=0 ===
0x00AB59:  9a 00 00 78 0f      lcall 0xf78, 0
0x00AB5E:  9a 0d 00 16 0f      lcall 0xf16, 0xd
0x00AB63:  55                  push bp
0x00AB64:  89 e5               mov bp, sp
0x00AB66:  b8 00 02            mov ax, 0x200
0x00AB69:  9a cd 02 78 0f      lcall 0xf78, 0x2cd
0x00AB6E:  81 ec 00 02         sub sp, 0x200
0x00AB72:  e8 98 be            call 0x6a0d
0x00AB75:  a0 92 36            mov al, byte ptr [0x3692]
0x00AB78:  30 e4               xor ah, ah
0x00AB7A:  ba 0a 00            mov dx, 0xa
0x00AB7D:  f7 e2               mul dx
0x00AB7F:  3b 06 a6 38         cmp ax, word ptr [0x38a6]
0x00AB83:  7e 03               jle 0xab88
0x00AB85:  e9 90 02            jmp 0xae18
0x00AB88:  80 3e 92 36 05      cmp byte ptr [0x3692], 5
0x00AB8D:  72 03               jb 0xab92
0x00AB8F:  e9 86 02            jmp 0xae18
0x00AB92:  fe 06 92 36         inc byte ptr [0x3692]
0x00AB96:  c6 06 98 36 00      mov byte ptr [0x3698], 0
0x00AB9B:  c6 06 94 36 00      mov byte ptr [0x3694], 0
0x00ABA0:  83 3e 9c 38 03      cmp word ptr [0x389c], 3
0x00ABA5:  74 05               je 0xabac
0x00ABA7:  c6 06 99 36 00      mov byte ptr [0x3699], 0
0x00ABAC:  c6 06 9a 36 00      mov byte ptr [0x369a], 0
0x00ABAC:  c6 06 9a 36 00      mov byte ptr [0x369a], 0
0x00ABB1:  83 3e 9c 38 03      cmp word ptr [0x389c], 3
0x00ABB1:  83 3e 9c 38 03      cmp word ptr [0x389c], 3
0x00ABB6:  74 05               je 0xabbd
0x00ABB6:  74 05               je 0xabbd
0x00ABB8:  c6 06 97 36 00      mov byte ptr [0x3697], 0
0x00ABB8:  c6 06 97 36 00      mov byte ptr [0x3697], 0
0x00ABBD:  c6 06 95 36 00      mov byte ptr [0x3695], 0
0x00ABBD:  c6 06 95 36 00      mov byte ptr [0x3695], 0
0x00ABBD:  c6 06 95 36 00      mov byte ptr [0x3695], 0
0x00ABC2:  83 3e 9c 38 05      cmp word ptr [0x389c], 5
0x00ABC2:  83 3e 9c 38 05      cmp word ptr [0x389c], 5
0x00ABC2:  83 3e 9c 38 05      cmp word ptr [0x389c], 5
0x00ABC7:  74 05               je 0xabce
0x00ABC7:  74 05               je 0xabce
0x00ABC7:  74 05               je 0xabce
0x00ABC9:  c6 06 96 36 00      mov byte ptr [0x3696], 0
0x00ABC9:  c6 06 96 36 00      mov byte ptr [0x3696], 0
0x00ABC9:  c6 06 96 36 00      mov byte ptr [0x3696], 0
0x00ABCE:  c6 06 76 3b 00      mov byte ptr [0x3b76], 0
0x00ABCE:  c6 06 76 3b 00      mov byte ptr [0x3b76], 0
0x00ABCE:  c6 06 76 3b 00      mov byte ptr [0x3b76], 0
0x00ABCE:  c6 06 76 3b 00      mov byte ptr [0x3b76], 0
0x00ABD3:  c6 06 77 3b 00      mov byte ptr [0x3b77], 0
0x00ABD3:  c6 06 77 3b 00      mov byte ptr [0x3b77], 0
0x00ABD3:  c6 06 77 3b 00      mov byte ptr [0x3b77], 0
0x00ABD3:  c6 06 77 3b 00      mov byte ptr [0x3b77], 0
0x00ABD8:  bf b3 82            mov di, 0x82b3
0x00ABD8:  bf b3 82            mov di, 0x82b3
0x00ABD8:  bf b3 82            mov di, 0x82b3
0x00ABD8:  bf b3 82            mov di, 0x82b3
0x00ABDB:  0e                  push cs
0x00ABDB:  0e                  push cs
0x00ABDB:  0e                  push cs
0x00ABDB:  0e                  push cs
0x00ABDC:  57                  push di
0x00ABDC:  57                  push di
0x00ABDC:  57                  push di
0x00ABDC:  57                  push di
0x00ABDD:  31 c0               xor ax, ax
0x00ABDD:  31 c0               xor ax, ax
0x00ABDD:  31 c0               xor ax, ax
0x00ABDD:  31 c0               xor ax, ax
0x00ABDF:  50                  push ax
0x00ABDF:  50                  push ax
0x00ABDF:  50                  push ax
0x00ABDF:  50                  push ax
0x00ABE0:  31 c0               xor ax, ax
0x00ABE0:  31 c0               xor ax, ax
0x00ABE0:  31 c0               xor ax, ax
0x00ABE0:  31 c0               xor ax, ax
0x00ABE2:  50                  push ax
0x00ABE2:  50                  push ax
0x00ABE2:  50                  push ax
0x00ABE2:  50                  push ax
0x00ABE3:  31 c0               xor ax, ax
0x00ABE3:  31 c0               xor ax, ax
0x00ABE3:  31 c0               xor ax, ax
0x00ABE3:  31 c0               xor ax, ax
0x00ABE5:  50                  push ax
0x00ABE5:  50                  push ax
0x00ABE5:  50                  push ax
0x00ABE5:  50                  push ax
0x00ABE6:  31 c0               xor ax, ax
0x00ABE6:  31 c0               xor ax, ax
0x00ABE6:  31 c0               xor ax, ax
0x00ABE6:  31 c0               xor ax, ax
0x00ABE8:  50                  push ax
0x00ABE8:  50                  push ax
0x00ABE8:  50                  push ax
0x00ABE8:  50                  push ax
0x00ABE9:  31 c0               xor ax, ax
0x00ABE9:  31 c0               xor ax, ax
0x00ABE9:  31 c0               xor ax, ax
0x00ABE9:  31 c0               xor ax, ax
0x00ABEB:  50                  push ax
0x00ABEB:  50                  push ax
0x00ABEB:  50                  push ax
0x00ABEB:  50                  push ax
0x00ABEC:  9a c2 01 ed 0e      lcall 0xeed, 0x1c2
0x00ABEC:  9a c2 01 ed 0e      lcall 0xeed, 0x1c2
0x00ABEC:  9a c2 01 ed 0e      lcall 0xeed, 0x1c2
0x00ABEC:  9a c2 01 ed 0e      lcall 0xeed, 0x1c2
0x00ABF1:  bf fd 82            mov di, 0x82fd
0x00ABF1:  bf fd 82            mov di, 0x82fd
0x00ABF1:  bf fd 82            mov di, 0x82fd
0x00ABF1:  bf fd 82            mov di, 0x82fd
0x00ABF4:  0e                  push cs
0x00ABF4:  0e                  push cs
0x00ABF4:  0e                  push cs
0x00ABF4:  0e                  push cs
0x00ABF5:  57                  push di
0x00ABF5:  57                  push di
0x00ABF5:  57                  push di
0x00ABF5:  57                  push di
0x00ABF6:  31 c0               xor ax, ax
0x00ABF6:  31 c0               xor ax, ax
0x00ABF6:  31 c0               xor ax, ax
0x00ABF6:  31 c0               xor ax, ax
0x00ABF8:  50                  push ax
0x00ABF8:  50                  push ax
0x00ABF8:  50                  push ax
0x00ABF8:  50                  push ax
0x00ABF9:  31 c0               xor ax, ax
0x00ABF9:  31 c0               xor ax, ax
0x00ABF9:  31 c0               xor ax, ax
0x00ABF9:  31 c0               xor ax, ax
0x00ABFB:  50                  push ax
0x00ABFB:  50                  push ax
0x00ABFB:  50                  push ax
0x00ABFB:  50                  push ax
0x00ABFC:  31 c0               xor ax, ax
0x00ABFC:  31 c0               xor ax, ax
0x00ABFC:  31 c0               xor ax, ax
0x00ABFC:  31 c0               xor ax, ax
0x00ABFE:  50                  push ax
0x00ABFE:  50                  push ax
0x00ABFE:  50                  push ax
0x00ABFE:  50                  push ax
0x00ABFF:  31 c0               xor ax, ax
0x00ABFF:  31 c0               xor ax, ax
0x00ABFF:  31 c0               xor ax, ax
0x00ABFF:  31 c0               xor ax, ax
0x00AC01:  50                  push ax
0x00AC01:  50                  push ax
0x00AC01:  50                  push ax
0x00AC01:  50                  push ax
0x00AC02:  31 c0               xor ax, ax
0x00AC02:  31 c0               xor ax, ax
0x00AC02:  31 c0               xor ax, ax
0x00AC02:  31 c0               xor ax, ax
0x00AC04:  50                  push ax
0x00AC04:  50                  push ax
0x00AC04:  50                  push ax
0x00AC04:  50                  push ax
0x00AC05:  9a c2 01 ed 0e      lcall 0xeed, 0x1c2
0x00AC05:  9a c2 01 ed 0e      lcall 0xeed, 0x1c2
0x00AC05:  9a c2 01 ed 0e      lcall 0xeed, 0x1c2
0x00AC05:  9a c2 01 ed 0e      lcall 0xeed, 0x1c2
0x00AC0A:  bf 21 83            mov di, 0x8321
0x00AC0A:  bf 21 83            mov di, 0x8321
0x00AC0A:  bf 21 83            mov di, 0x8321
0x00AC0A:  bf 21 83            mov di, 0x8321
0x00AC0D:  0e                  push cs
0x00AC0D:  0e                  push cs
0x00AC0D:  0e                  push cs
0x00AC0D:  0e                  push cs
0x00AC0E:  57                  push di
0x00AC0E:  57                  push di
0x00AC0E:  57                  push di
0x00AC0E:  57                  push di
0x00AC0F:  31 c0               xor ax, ax
0x00AC0F:  31 c0               xor ax, ax
0x00AC0F:  31 c0               xor ax, ax
0x00AC0F:  31 c0               xor ax, ax
0x00AC11:  50                  push ax
0x00AC11:  50                  push ax
0x00AC11:  50                  push ax
0x00AC11:  50                  push ax
0x00AC12:  31 c0               xor ax, ax
0x00AC12:  31 c0               xor ax, ax
0x00AC12:  31 c0               xor ax, ax
0x00AC12:  31 c0               xor ax, ax
0x00AC14:  50                  push ax
0x00AC14:  50                  push ax
0x00AC14:  50                  push ax
0x00AC14:  50                  push ax
0x00AC15:  31 c0               xor ax, ax
0x00AC15:  31 c0               xor ax, ax
0x00AC15:  31 c0               xor ax, ax
0x00AC15:  31 c0               xor ax, ax
0x00AC17:  50                  push ax
0x00AC17:  50                  push ax
0x00AC17:  50                  push ax
0x00AC17:  50                  push ax
0x00AC18:  31 c0               xor ax, ax
0x00AC18:  31 c0               xor ax, ax
0x00AC18:  31 c0               xor ax, ax
0x00AC18:  31 c0               xor ax, ax
0x00AC1A:  50                  push ax
0x00AC1A:  50                  push ax
0x00AC1A:  50                  push ax
0x00AC1A:  50                  push ax
0x00AC1B:  31 c0               xor ax, ax
0x00AC1B:  31 c0               xor ax, ax
0x00AC1B:  31 c0               xor ax, ax
0x00AC1B:  31 c0               xor ax, ax
0x00AC1D:  50                  push ax
0x00AC1D:  50                  push ax
0x00AC1D:  50                  push ax
0x00AC1D:  50                  push ax
0x00AC1E:  9a 00 00 ed 0e      lcall 0xeed, 0
0x00AC1E:  9a 00 00 ed 0e      lcall 0xeed, 0
0x00AC1E:  9a 00 00 ed 0e      lcall 0xeed, 0
0x00AC1E:  9a 00 00 ed 0e      lcall 0xeed, 0
0x00AC23:  bf cc 3e            mov di, 0x3ecc
0x00AC23:  bf cc 3e            mov di, 0x3ecc
0x00AC23:  bf cc 3e            mov di, 0x3ecc
0x00AC23:  bf cc 3e            mov di, 0x3ecc
0x00AC26:  1e                  push ds
0x00AC26:  1e                  push ds
0x00AC26:  1e                  push ds
0x00AC26:  1e                  push ds
0x00AC27:  57                  push di
0x00AC27:  57                  push di
0x00AC27:  57                  push di
0x00AC27:  57                  push di
0x00AC28:  bf 72 3a            mov di, 0x3a72
0x00AC28:  bf 72 3a            mov di, 0x3a72
0x00AC28:  bf 72 3a            mov di, 0x3a72
0x00AC28:  bf 72 3a            mov di, 0x3a72
0x00AC2B:  1e                  push ds
0x00AC2B:  1e                  push ds
0x00AC2B:  1e                  push ds
0x00AC2B:  1e                  push ds
0x00AC2C:  57                  push di
0x00AC2C:  57                  push di
0x00AC2C:  57                  push di
0x00AC2C:  57                  push di
0x00AC2D:  b8 ff 00            mov ax, 0xff
0x00AC2D:  b8 ff 00            mov ax, 0xff
0x00AC2D:  b8 ff 00            mov ax, 0xff
0x00AC2D:  b8 ff 00            mov ax, 0xff
0x00AC30:  50                  push ax
0x00AC30:  50                  push ax
0x00AC30:  50                  push ax
0x00AC30:  50                  push ax
0x00AC31:  9a c6 06 78 0f      lcall 0xf78, 0x6c6
0x00AC31:  9a c6 06 78 0f      lcall 0xf78, 0x6c6
0x00AC31:  9a c6 06 78 0f      lcall 0xf78, 0x6c6
0x00AC31:  9a c6 06 78 0f      lcall 0xf78, 0x6c6
0x00AC36:  9a 9d 05 78 0f      lcall 0xf78, 0x59d
0x00AC36:  9a 9d 05 78 0f      lcall 0xf78, 0x59d
0x00AC36:  9a 9d 05 78 0f      lcall 0xf78, 0x59d
0x00AC36:  9a 9d 05 78 0f      lcall 0xf78, 0x59d
0x00AC3B:  9a 91 02 78 0f      lcall 0xf78, 0x291
0x00AC3B:  9a 91 02 78 0f      lcall 0xf78, 0x291
0x00AC3B:  9a 91 02 78 0f      lcall 0xf78, 0x291
0x00AC3B:  9a 91 02 78 0f      lcall 0xf78, 0x291
0x00AC40:  bf 72 3a            mov di, 0x3a72
0x00AC40:  bf 72 3a            mov di, 0x3a72
0x00AC40:  bf 72 3a            mov di, 0x3a72
0x00AC40:  bf 72 3a            mov di, 0x3a72
0x00AC43:  1e                  push ds
0x00AC43:  1e                  push ds
0x00AC43:  1e                  push ds
0x00AC43:  1e                  push ds
0x00AC44:  57                  push di
0x00AC44:  57                  push di
0x00AC44:  57                  push di
0x00AC44:  57                  push di
0x00AC45:  9a 16 02 ed 0e      lcall 0xeed, 0x216
0x00AC45:  9a 16 02 ed 0e      lcall 0xeed, 0x216
0x00AC45:  9a 16 02 ed 0e      lcall 0xeed, 0x216
0x00AC45:  9a 16 02 ed 0e      lcall 0xeed, 0x216
0x00AC4A:  bf 72 3a            mov di, 0x3a72
0x00AC4A:  bf 72 3a            mov di, 0x3a72
0x00AC4A:  bf 72 3a            mov di, 0x3a72
0x00AC4A:  bf 72 3a            mov di, 0x3a72
0x00AC4D:  1e                  push ds
0x00AC4D:  1e                  push ds
0x00AC4D:  1e                  push ds
0x00AC4D:  1e                  push ds
0x00AC4E:  57                  push di
0x00AC4E:  57                  push di
0x00AC4E:  57                  push di
0x00AC4E:  57                  push di
0x00AC4F:  bf 23 83            mov di, 0x8323
0x00AC4F:  bf 23 83            mov di, 0x8323
0x00AC4F:  bf 23 83            mov di, 0x8323
0x00AC4F:  bf 23 83            mov di, 0x8323
0x00AC52:  0e                  push cs
0x00AC52:  0e                  push cs
0x00AC52:  0e                  push cs
0x00AC52:  0e                  push cs
0x00AC53:  57                  push di
0x00AC53:  57                  push di
0x00AC53:  57                  push di
0x00AC53:  57                  push di
0x00AC54:  9a d8 0b 78 0f      lcall 0xf78, 0xbd8
0x00AC54:  9a d8 0b 78 0f      lcall 0xf78, 0xbd8
0x00AC54:  9a d8 0b 78 0f      lcall 0xf78, 0xbd8
0x00AC54:  9a d8 0b 78 0f      lcall 0xf78, 0xbd8
0x00AC59:  74 03               je 0xac5e
0x00AC59:  74 03               je 0xac5e
0x00AC59:  74 03               je 0xac5e
0x00AC59:  74 03               je 0xac5e
0x00AC5B:  e9 b4 00            jmp 0xad12
0x00AC5B:  e9 b4 00            jmp 0xad12
0x00AC5B:  e9 b4 00            jmp 0xad12
0x00AC5B:  e9 b4 00            jmp 0xad12
0x00AC5E:  a0 92 36            mov al, byte ptr [0x3692]
0x00AC61:  30 e4               xor ah, ah
0x00AC63:  31 d2               xor dx, dx
0x00AC65:  52                  push dx
0x00AC66:  50                  push ax
0x00AC67:  31 c0               xor ax, ax
0x00AC69:  50                  push ax
0x00AC6A:  bf 7c 3b            mov di, 0x3b7c
0x00AC6D:  1e                  push ds
0x00AC6E:  57                  push di
0x00AC6F:  b8 ff 00            mov ax, 0xff
0x00AC72:  50                  push ax
0x00AC73:  9a d0 12 78 0f      lcall 0xf78, 0x12d0
0x00AC78:  bf 84 3c            mov di, 0x3c84
0x00AC7B:  1e                  push ds
0x00AC7C:  57                  push di
0x00AC7D:  8d be 00 ff         lea di, [bp - 0x100]
0x00AC81:  16                  push ss
0x00AC82:  57                  push di
0x00AC83:  bf 32 3d            mov di, 0x3d32
0x00AC86:  1e                  push ds
0x00AC87:  57                  push di
0x00AC88:  9a e7 0a 78 0f      lcall 0xf78, 0xae7
0x00AC8D:  bf 25 83            mov di, 0x8325
0x00AC90:  0e                  push cs
0x00AC91:  57                  push di
0x00AC92:  9a 66 0b 78 0f      lcall 0xf78, 0xb66
0x00AC97:  bf 7c 3b            mov di, 0x3b7c
0x00AC9A:  1e                  push ds
0x00AC9B:  57                  push di
0x00AC9C:  9a 66 0b 78 0f      lcall 0xf78, 0xb66
0x00ACA1:  bf 2c 83            mov di, 0x832c
0x00ACA4:  0e                  push cs
0x00ACA5:  57                  push di
0x00ACA6:  9a 66 0b 78 0f      lcall 0xf78, 0xb66
0x00ACAB:  9a 2e 07 78 0f      lcall 0xf78, 0x72e
0x00ACB0:  bf 84 3c            mov di, 0x3c84
0x00ACB3:  1e                  push ds
0x00ACB4:  57                  push di
0x00ACB5:  b8 b6 02            mov ax, 0x2b6
0x00ACB8:  50                  push ax
0x00ACB9:  9a 72 07 78 0f      lcall 0xf78, 0x772
0x00ACBE:  bf 84 3c            mov di, 0x3c84
0x00ACC1:  1e                  push ds
0x00ACC2:  57                  push di
0x00ACC3:  bf 9c 36            mov di, 0x369c
0x00ACC6:  1e                  push ds
0x00ACC7:  57                  push di
0x00ACC8:  9a 25 08 78 0f      lcall 0xf78, 0x825
0x00ACCD:  83 c4 04            add sp, 4
0x00ACD0:  bf 84 3c            mov di, 0x3c84
0x00ACD3:  1e                  push ds
0x00ACD4:  57                  push di
0x00ACD5:  9a ea 07 78 0f      lcall 0xf78, 0x7ea
0x00ACDA:  8d be 00 ff         lea di, [bp - 0x100]
0x00ACDE:  16                  push ss
0x00ACDF:  57                  push di
0x00ACE0:  bf 31 83            mov di, 0x8331
0x00ACE3:  0e                  push cs
0x00ACE4:  57                  push di
0x00ACE5:  9a e7 0a 78 0f      lcall 0xf78, 0xae7
0x00ACEA:  bf 7c 3b            mov di, 0x3b7c
0x00ACED:  1e                  push ds
0x00ACEE:  57                  push di
0x00ACEF:  9a 66 0b 78 0f      lcall 0xf78, 0xb66
0x00ACF4:  bf 2c 83            mov di, 0x832c
0x00ACF7:  0e                  push cs
0x00ACF8:  57                  push di
0x00ACF9:  9a 66 0b 78 0f      lcall 0xf78, 0xb66
0x00ACFE:  31 c0               xor ax, ax
0x00AD00:  50                  push ax
0x00AD01:  31 c0               xor ax, ax
0x00AD03:  50                  push ax
0x00AD04:  31 c0               xor ax, ax
0x00AD06:  50                  push ax
0x00AD07:  31 c0               xor ax, ax
0x00AD09:  50                  push ax
0x00AD0A:  31 c0               xor ax, ax
0x00AD0C:  50                  push ax
0x00AD0D:  9a c2 01 ed 0e      lcall 0xeed, 0x1c2
0x00AD12:  a0 92 36            mov al, byte ptr [0x3692]
0x00AD15:  3c 02               cmp al, 2
0x00AD17:  75 35               jne 0xad4e
0x00AD19:  bf 46 83            mov di, 0x8346
0x00AD1C:  0e                  push cs
0x00AD1D:  57                  push di
0x00AD1E:  31 c0               xor ax, ax
0x00AD20:  50                  push ax
0x00AD21:  31 c0               xor ax, ax
0x00AD23:  50                  push ax
0x00AD24:  31 c0               xor ax, ax
0x00AD26:  50                  push ax
0x00AD27:  31 c0               xor ax, ax
0x00AD29:  50                  push ax
0x00AD2A:  31 c0               xor ax, ax
0x00AD2C:  50                  push ax
0x00AD2D:  9a c2 01 ed 0e      lcall 0xeed, 0x1c2
0x00AD32:  bf 6f 83            mov di, 0x836f
0x00AD35:  0e                  push cs
0x00AD36:  57                  push di
0x00AD37:  31 c0               xor ax, ax
0x00AD39:  50                  push ax
0x00AD3A:  31 c0               xor ax, ax
0x00AD3C:  50                  push ax
0x00AD3D:  31 c0               xor ax, ax
0x00AD3F:  50                  push ax
0x00AD40:  31 c0               xor ax, ax
0x00AD42:  50                  push ax
0x00AD43:  31 c0               xor ax, ax
0x00AD45:  50                  push ax
0x00AD46:  9a c2 01 ed 0e      lcall 0xeed, 0x1c2
0x00AD4B:  e9 ca 00            jmp 0xae18
0x00AD4E:  3c 03               cmp al, 3
0x00AD50:  75 35               jne 0xad87
0x00AD52:  bf 8e 83            mov di, 0x838e
0x00AD55:  0e                  push cs
0x00AD56:  57                  push di
0x00AD57:  31 c0               xor ax, ax
0x00AD59:  50                  push ax
0x00AD5A:  31 c0               xor ax, ax
0x00AD5C:  50                  push ax
0x00AD5D:  31 c0               xor ax, ax
0x00AD5F:  50                  push ax
0x00AD60:  31 c0               xor ax, ax
0x00AD62:  50                  push ax
0x00AD63:  31 c0               xor ax, ax
0x00AD65:  50                  push ax
0x00AD66:  9a c2 01 ed 0e      lcall 0xeed, 0x1c2
0x00AD6B:  bf b5 83            mov di, 0x83b5
0x00AD6E:  0e                  push cs
0x00AD6F:  57                  push di
0x00AD70:  31 c0               xor ax, ax
0x00AD72:  50                  push ax
0x00AD73:  31 c0               xor ax, ax
0x00AD75:  50                  push ax
0x00AD76:  31 c0               xor ax, ax
0x00AD78:  50                  push ax
0x00AD79:  31 c0               xor ax, ax
0x00AD7B:  50                  push ax
0x00AD7C:  31 c0               xor ax, ax
0x00AD7E:  50                  push ax
0x00AD7F:  9a c2 01 ed 0e      lcall 0xeed, 0x1c2
0x00AD84:  e9 91 00            jmp 0xae18
0x00AD87:  3c 04               cmp al, 4
0x00AD89:  75 34               jne 0xadbf
0x00AD8B:  bf dd 83            mov di, 0x83dd
0x00AD8E:  0e                  push cs
0x00AD8F:  57                  push di
0x00AD90:  31 c0               xor ax, ax
0x00AD92:  50                  push ax
0x00AD93:  31 c0               xor ax, ax
0x00AD95:  50                  push ax
0x00AD96:  31 c0               xor ax, ax
0x00AD98:  50                  push ax
0x00AD99:  31 c0               xor ax, ax
0x00AD9B:  50                  push ax
0x00AD9C:  31 c0               xor ax, ax
0x00AD9E:  50                  push ax
0x00AD9F:  9a c2 01 ed 0e      lcall 0xeed, 0x1c2
0x00ADA4:  bf f8 83            mov di, 0x83f8
0x00ADA7:  0e                  push cs
0x00ADA8:  57                  push di
0x00ADA9:  31 c0               xor ax, ax
0x00ADAB:  50                  push ax
0x00ADAC:  31 c0               xor ax, ax
0x00ADAE:  50                  push ax
0x00ADAF:  31 c0               xor ax, ax
0x00ADB1:  50                  push ax
0x00ADB2:  31 c0               xor ax, ax
0x00ADB4:  50                  push ax
0x00ADB5:  31 c0               xor ax, ax
0x00ADB7:  50                  push ax
0x00ADB8:  9a c2 01 ed 0e      lcall 0xeed, 0x1c2
0x00ADBD:  eb 59               jmp 0xae18
0x00ADBF:  3c 05               cmp al, 5
0x00ADC1:  75 55               jne 0xae18
0x00ADC3:  bf 22 84            mov di, 0x8422
0x00ADC6:  0e                  push cs
0x00ADC7:  57                  push di
0x00ADC8:  31 c0               xor ax, ax
0x00ADCA:  50                  push ax
0x00ADCB:  31 c0               xor ax, ax
0x00ADCD:  50                  push ax
0x00ADCE:  31 c0               xor ax, ax
0x00ADD0:  50                  push ax
0x00ADD1:  31 c0               xor ax, ax
0x00ADD3:  50                  push ax
0x00ADD4:  31 c0               xor ax, ax
0x00ADD6:  50                  push ax
0x00ADD7:  9a c2 01 ed 0e      lcall 0xeed, 0x1c2
0x00ADDC:  9a 1a 03 16 0f      lcall 0xf16, 0x31a
0x00ADE1:  bf 46 84            mov di, 0x8446
0x00ADE4:  0e                  push cs
0x00ADE5:  57                  push di
0x00ADE6:  31 c0               xor ax, ax
0x00ADE8:  50                  push ax
0x00ADE9:  31 c0               xor ax, ax
0x00ADEB:  50                  push ax
0x00ADEC:  31 c0               xor ax, ax
0x00ADEE:  50                  push ax
0x00ADEF:  31 c0               xor ax, ax
0x00ADF1:  50                  push ax
0x00ADF2:  31 c0               xor ax, ax
0x00ADF4:  50                  push ax
0x00ADF5:  9a c2 01 ed 0e      lcall 0xeed, 0x1c2
0x00ADFA:  bf 7e 84            mov di, 0x847e
0x00ADFD:  0e                  push cs
0x00ADFE:  57                  push di
0x00ADFF:  31 c0               xor ax, ax
0x00AE01:  50                  push ax
0x00AE02:  31 c0               xor ax, ax
0x00AE04:  50                  push ax
0x00AE05:  31 c0               xor ax, ax
0x00AE07:  50                  push ax
0x00AE08:  31 c0               xor ax, ax
0x00AE0A:  50                  push ax
0x00AE0B:  31 c0               xor ax, ax
0x00AE0D:  50                  push ax
0x00AE0E:  9a c2 01 ed 0e      lcall 0xeed, 0x1c2
0x00AE13:  c6 06 83 3c 01      mov byte ptr [0x3c83], 1
0x00AE18:  80 3e 83 3c 01      cmp byte ptr [0x3c83], 1
0x00AE18:  80 3e 83 3c 01      cmp byte ptr [0x3c83], 1
0x00AE1D:  75 1d               jne 0xae3c
0x00AE1D:  75 1d               jne 0xae3c
0x00AE1F:  c6 06 96 36 01      mov byte ptr [0x3696], 1
0x00AE1F:  c6 06 96 36 01      mov byte ptr [0x3696], 1
0x00AE24:  b0 00               mov al, 0
0x00AE24:  b0 00               mov al, 0
0x00AE26:  50                  push ax
0x00AE26:  50                  push ax
0x00AE27:  e8 98 63            call 0x111c2
0x00AE27:  e8 98 63            call 0x111c2
0x00AE2A:  b0 03               mov al, 3
0x00AE2A:  b0 03               mov al, 3
0x00AE2C:  50                  push ax
0x00AE2C:  50                  push ax
0x00AE2D:  e8 e1 8e            call 0x3d11
0x00AE2D:  e8 e1 8e            call 0x3d11
0x00AE30:  b0 01               mov al, 1
0x00AE30:  b0 01               mov al, 1
0x00AE32:  50                  push ax
0x00AE32:  50                  push ax
0x00AE33:  e8 8c 63            call 0x111c2
0x00AE33:  e8 8c 63            call 0x111c2
0x00AE36:  b0 04               mov al, 4
0x00AE36:  b0 04               mov al, 4
0x00AE38:  50                  push ax
0x00AE38:  50                  push ax
0x00AE39:  e8 d5 8e            call 0x3d11
0x00AE39:  e8 d5 8e            call 0x3d11
0x00AE3C:  bf 21 83            mov di, 0x8321
0x00AE3C:  bf 21 83            mov di, 0x8321
0x00AE3C:  bf 21 83            mov di, 0x8321
0x00AE3F:  0e                  push cs
0x00AE3F:  0e                  push cs
0x00AE3F:  0e                  push cs
0x00AE40:  57                  push di
0x00AE40:  57                  push di
0x00AE40:  57                  push di
0x00AE41:  31 c0               xor ax, ax
0x00AE41:  31 c0               xor ax, ax
0x00AE41:  31 c0               xor ax, ax
0x00AE43:  50                  push ax
0x00AE43:  50                  push ax
0x00AE43:  50                  push ax
0x00AE44:  31 c0               xor ax, ax
0x00AE44:  31 c0               xor ax, ax
0x00AE44:  31 c0               xor ax, ax
0x00AE46:  50                  push ax
0x00AE46:  50                  push ax
0x00AE46:  50                  push ax
0x00AE47:  31 c0               xor ax, ax
0x00AE47:  31 c0               xor ax, ax
0x00AE47:  31 c0               xor ax, ax
0x00AE49:  50                  push ax
0x00AE49:  50                  push ax
0x00AE49:  50                  push ax
0x00AE4A:  31 c0               xor ax, ax
0x00AE4A:  31 c0               xor ax, ax
0x00AE4A:  31 c0               xor ax, ax
0x00AE4C:  50                  push ax
0x00AE4C:  50                  push ax
0x00AE4C:  50                  push ax
0x00AE4D:  31 c0               xor ax, ax
0x00AE4D:  31 c0               xor ax, ax
0x00AE4D:  31 c0               xor ax, ax
0x00AE4F:  50                  push ax
0x00AE4F:  50                  push ax
0x00AE4F:  50                  push ax
0x00AE50:  9a 00 00 ed 0e      lcall 0xeed, 0
0x00AE50:  9a 00 00 ed 0e      lcall 0xeed, 0
0x00AE50:  9a 00 00 ed 0e      lcall 0xeed, 0
0x00AE55:  bf cc 3e            mov di, 0x3ecc
0x00AE55:  bf cc 3e            mov di, 0x3ecc
0x00AE55:  bf cc 3e            mov di, 0x3ecc
0x00AE58:  1e                  push ds
0x00AE58:  1e                  push ds
0x00AE58:  1e                  push ds
0x00AE59:  57                  push di
0x00AE59:  57                  push di
0x00AE59:  57                  push di
0x00AE5A:  bf 72 39            mov di, 0x3972
0x00AE5A:  bf 72 39            mov di, 0x3972
0x00AE5A:  bf 72 39            mov di, 0x3972
0x00AE5D:  1e                  push ds
0x00AE5D:  1e                  push ds
0x00AE5D:  1e                  push ds
0x00AE5E:  57                  push di
0x00AE5E:  57                  push di
0x00AE5E:  57                  push di
0x00AE5F:  b8 ff 00            mov ax, 0xff
0x00AE5F:  b8 ff 00            mov ax, 0xff
0x00AE5F:  b8 ff 00            mov ax, 0xff
0x00AE62:  50                  push ax
0x00AE62:  50                  push ax
0x00AE62:  50                  push ax
0x00AE63:  9a c6 06 78 0f      lcall 0xf78, 0x6c6
0x00AE63:  9a c6 06 78 0f      lcall 0xf78, 0x6c6
0x00AE63:  9a c6 06 78 0f      lcall 0xf78, 0x6c6
0x00AE68:  9a 9d 05 78 0f      lcall 0xf78, 0x59d
0x00AE68:  9a 9d 05 78 0f      lcall 0xf78, 0x59d
0x00AE68:  9a 9d 05 78 0f      lcall 0xf78, 0x59d
0x00AE6D:  9a 91 02 78 0f      lcall 0xf78, 0x291
0x00AE6D:  9a 91 02 78 0f      lcall 0xf78, 0x291
0x00AE6D:  9a 91 02 78 0f      lcall 0xf78, 0x291
0x00AE72:  bf 72 39            mov di, 0x3972
0x00AE72:  bf 72 39            mov di, 0x3972
0x00AE72:  bf 72 39            mov di, 0x3972
0x00AE75:  1e                  push ds
0x00AE75:  1e                  push ds
0x00AE75:  1e                  push ds
0x00AE76:  57                  push di
0x00AE76:  57                  push di
0x00AE76:  57                  push di
0x00AE77:  9a 16 02 ed 0e      lcall 0xeed, 0x216
0x00AE77:  9a 16 02 ed 0e      lcall 0xeed, 0x216
0x00AE77:  9a 16 02 ed 0e      lcall 0xeed, 0x216
0x00AE7C:  bf 72 39            mov di, 0x3972
0x00AE7C:  bf 72 39            mov di, 0x3972
0x00AE7C:  bf 72 39            mov di, 0x3972
0x00AE7F:  1e                  push ds
0x00AE7F:  1e                  push ds
0x00AE7F:  1e                  push ds
0x00AE80:  57                  push di
0x00AE80:  57                  push di
0x00AE80:  57                  push di
0x00AE81:  bf 8e 84            mov di, 0x848e
0x00AE81:  bf 8e 84            mov di, 0x848e
0x00AE81:  bf 8e 84            mov di, 0x848e
0x00AE84:  0e                  push cs
0x00AE84:  0e                  push cs
0x00AE84:  0e                  push cs
0x00AE85:  57                  push di
0x00AE85:  57                  push di
0x00AE85:  57                  push di
0x00AE86:  9a d8 0b 78 0f      lcall 0xf78, 0xbd8
0x00AE86:  9a d8 0b 78 0f      lcall 0xf78, 0xbd8
0x00AE86:  9a d8 0b 78 0f      lcall 0xf78, 0xbd8
0x00AE8B:  74 14               je 0xaea1
0x00AE8B:  74 14               je 0xaea1
0x00AE8B:  74 14               je 0xaea1
0x00AE8D:  bf 72 39            mov di, 0x3972
0x00AE8D:  bf 72 39            mov di, 0x3972
0x00AE8D:  bf 72 39            mov di, 0x3972
0x00AE90:  1e                  push ds
0x00AE90:  1e                  push ds
0x00AE90:  1e                  push ds
0x00AE91:  57                  push di
0x00AE91:  57                  push di
0x00AE91:  57                  push di
0x00AE92:  bf 90 84            mov di, 0x8490
0x00AE92:  bf 90 84            mov di, 0x8490
0x00AE92:  bf 90 84            mov di, 0x8490
0x00AE95:  0e                  push cs
0x00AE95:  0e                  push cs
0x00AE95:  0e                  push cs
0x00AE96:  57                  push di
0x00AE96:  57                  push di
0x00AE96:  57                  push di
0x00AE97:  9a d8 0b 78 0f      lcall 0xf78, 0xbd8
0x00AE97:  9a d8 0b 78 0f      lcall 0xf78, 0xbd8
0x00AE97:  9a d8 0b 78 0f      lcall 0xf78, 0xbd8
0x00AE9C:  74 03               je 0xaea1
0x00AE9C:  74 03               je 0xaea1
0x00AE9C:  74 03               je 0xaea1
0x00AE9E:  e9 9f 0a            jmp 0xb940
0x00AE9E:  e9 9f 0a            jmp 0xb940
0x00AE9E:  e9 9f 0a            jmp 0xb940
0x00AEA1:  80 3e cd 38 00      cmp byte ptr [0x38cd], 0
0x00AEA6:  76 32               jbe 0xaeda
0x00AEA8:  fe 0e cd 38         dec byte ptr [0x38cd]
0x00AEAC:  80 3e cd 38 00      cmp byte ptr [0x38cd], 0
0x00AEB1:  75 27               jne 0xaeda
0x00AEB3:  83 2e 9e 38 02      sub word ptr [0x389e], 2
0x00AEB8:  ff 0e a8 38         dec word ptr [0x38a8]
0x00AEBC:  83 2e aa 38 02      sub word ptr [0x38aa], 2
0x00AEC1:  bf 94 84            mov di, 0x8494
0x00AEC4:  0e                  push cs
0x00AEC5:  57                  push di
0x00AEC6:  31 c0               xor ax, ax
0x00AEC8:  50                  push ax
0x00AEC9:  31 c0               xor ax, ax
0x00AECB:  50                  push ax
0x00AECC:  31 c0               xor ax, ax
0x00AECE:  50                  push ax
0x00AECF:  31 c0               xor ax, ax
0x00AED1:  50                  push ax
0x00AED2:  31 c0               xor ax, ax
0x00AED4:  50                  push ax
0x00AED5:  9a c2 01 ed 0e      lcall 0xeed, 0x1c2
0x00AEDA:  bf 72 39            mov di, 0x3972
0x00AEDA:  bf 72 39            mov di, 0x3972
0x00AEDD:  1e                  push ds
0x00AEDD:  1e                  push ds
0x00AEDE:  57                  push di
0x00AEDE:  57                  push di
0x00AEDF:  bf 90 84            mov di, 0x8490
0x00AEDF:  bf 90 84            mov di, 0x8490
0x00AEE2:  0e                  push cs
0x00AEE2:  0e                  push cs
0x00AEE3:  57                  push di
0x00AEE3:  57                  push di
0x00AEE4:  9a d8 0b 78 0f      lcall 0xf78, 0xbd8
0x00AEE4:  9a d8 0b 78 0f      lcall 0xf78, 0xbd8
0x00AEE9:  75 19               jne 0xaf04
0x00AEE9:  75 19               jne 0xaf04
0x00AEEB:  bf ad 84            mov di, 0x84ad
0x00AEEB:  bf ad 84            mov di, 0x84ad
0x00AEEE:  0e                  push cs
0x00AEEE:  0e                  push cs
0x00AEEF:  57                  push di
0x00AEEF:  57                  push di
0x00AEF0:  31 c0               xor ax, ax
0x00AEF0:  31 c0               xor ax, ax
0x00AEF2:  50                  push ax
0x00AEF2:  50                  push ax
0x00AEF3:  31 c0               xor ax, ax
0x00AEF3:  31 c0               xor ax, ax
0x00AEF5:  50                  push ax
0x00AEF5:  50                  push ax
0x00AEF6:  31 c0               xor ax, ax
0x00AEF6:  31 c0               xor ax, ax
0x00AEF8:  50                  push ax
0x00AEF8:  50                  push ax
0x00AEF9:  31 c0               xor ax, ax
0x00AEF9:  31 c0               xor ax, ax
0x00AEFB:  50                  push ax
0x00AEFB:  50                  push ax
0x00AEFC:  31 c0               xor ax, ax
0x00AEFC:  31 c0               xor ax, ax
0x00AEFE:  50                  push ax
0x00AEFE:  50                  push ax
0x00AEFF:  9a c2 01 ed 0e      lcall 0xeed, 0x1c2
0x00AEFF:  9a c2 01 ed 0e      lcall 0xeed, 0x1c2
0x00AF04:  a0 92 36            mov al, byte ptr [0x3692]
0x00AF04:  a0 92 36            mov al, byte ptr [0x3692]
0x00AF04:  a0 92 36            mov al, byte ptr [0x3692]
0x00AF07:  30 e4               xor ah, ah
0x00AF07:  30 e4               xor ah, ah
0x00AF07:  30 e4               xor ah, ah
0x00AF09:  ba 0a 00            mov dx, 0xa
0x00AF09:  ba 0a 00            mov dx, 0xa
0x00AF09:  ba 0a 00            mov dx, 0xa
0x00AF0C:  f7 e2               mul dx
0x00AF0C:  f7 e2               mul dx
0x00AF0C:  f7 e2               mul dx
0x00AF0E:  8b d0               mov dx, ax
0x00AF0E:  8b d0               mov dx, ax
0x00AF0E:  8b d0               mov dx, ax
0x00AF10:  a0 35 3e            mov al, byte ptr [0x3e35]
0x00AF10:  a0 35 3e            mov al, byte ptr [0x3e35]
0x00AF10:  a0 35 3e            mov al, byte ptr [0x3e35]
0x00AF13:  30 e4               xor ah, ah
0x00AF13:  30 e4               xor ah, ah
0x00AF13:  30 e4               xor ah, ah
0x00AF15:  3b c2               cmp ax, dx
0x00AF15:  3b c2               cmp ax, dx
0x00AF15:  3b c2               cmp ax, dx
0x00AF17:  7d 04               jge 0xaf1d
0x00AF17:  7d 04               jge 0xaf1d
0x00AF17:  7d 04               jge 0xaf1d
0x00AF19:  fe 06 35 3e         inc byte ptr [0x3e35]
0x00AF19:  fe 06 35 3e         inc byte ptr [0x3e35]
0x00AF19:  fe 06 35 3e         inc byte ptr [0x3e35]
0x00AF1D:  80 3e 95 36 00      cmp byte ptr [0x3695], 0
0x00AF1D:  80 3e 95 36 00      cmp byte ptr [0x3695], 0
0x00AF1D:  80 3e 95 36 00      cmp byte ptr [0x3695], 0
0x00AF1D:  80 3e 95 36 00      cmp byte ptr [0x3695], 0
0x00AF22:  74 39               je 0xaf5d
0x00AF22:  74 39               je 0xaf5d
0x00AF22:  74 39               je 0xaf5d
0x00AF22:  74 39               je 0xaf5d
0x00AF24:  80 3e 4d 39 00      cmp byte ptr [0x394d], 0
0x00AF24:  80 3e 4d 39 00      cmp byte ptr [0x394d], 0
0x00AF24:  80 3e 4d 39 00      cmp byte ptr [0x394d], 0
0x00AF24:  80 3e 4d 39 00      cmp byte ptr [0x394d], 0
0x00AF29:  74 32               je 0xaf5d
0x00AF29:  74 32               je 0xaf5d
0x00AF29:  74 32               je 0xaf5d
0x00AF29:  74 32               je 0xaf5d
0x00AF2B:  80 3e 32 3e 19      cmp byte ptr [0x3e32], 0x19
0x00AF2B:  80 3e 32 3e 19      cmp byte ptr [0x3e32], 0x19
0x00AF2B:  80 3e 32 3e 19      cmp byte ptr [0x3e32], 0x19
0x00AF2B:  80 3e 32 3e 19      cmp byte ptr [0x3e32], 0x19
0x00AF30:  73 2b               jae 0xaf5d
0x00AF30:  73 2b               jae 0xaf5d
0x00AF30:  73 2b               jae 0xaf5d
0x00AF30:  73 2b               jae 0xaf5d
0x00AF32:  fe 06 32 3e         inc byte ptr [0x3e32]
0x00AF32:  fe 06 32 3e         inc byte ptr [0x3e32]
0x00AF32:  fe 06 32 3e         inc byte ptr [0x3e32]
0x00AF32:  fe 06 32 3e         inc byte ptr [0x3e32]
0x00AF36:  80 3e 32 3e 19      cmp byte ptr [0x3e32], 0x19
0x00AF36:  80 3e 32 3e 19      cmp byte ptr [0x3e32], 0x19
0x00AF36:  80 3e 32 3e 19      cmp byte ptr [0x3e32], 0x19
0x00AF36:  80 3e 32 3e 19      cmp byte ptr [0x3e32], 0x19
0x00AF3B:  75 20               jne 0xaf5d
0x00AF3B:  75 20               jne 0xaf5d
0x00AF3B:  75 20               jne 0xaf5d
0x00AF3B:  75 20               jne 0xaf5d
0x00AF3D:  80 3e bb 38 01      cmp byte ptr [0x38bb], 1
0x00AF3D:  80 3e bb 38 01      cmp byte ptr [0x38bb], 1
0x00AF3D:  80 3e bb 38 01      cmp byte ptr [0x38bb], 1
0x00AF3D:  80 3e bb 38 01      cmp byte ptr [0x38bb], 1
0x00AF42:  75 19               jne 0xaf5d
0x00AF42:  75 19               jne 0xaf5d
0x00AF42:  75 19               jne 0xaf5d
0x00AF42:  75 19               jne 0xaf5d
0x00AF44:  bf be 84            mov di, 0x84be
0x00AF44:  bf be 84            mov di, 0x84be
0x00AF44:  bf be 84            mov di, 0x84be
0x00AF44:  bf be 84            mov di, 0x84be
0x00AF47:  0e                  push cs
0x00AF47:  0e                  push cs
0x00AF47:  0e                  push cs
0x00AF47:  0e                  push cs
0x00AF48:  57                  push di
0x00AF48:  57                  push di
0x00AF48:  57                  push di
0x00AF48:  57                  push di
0x00AF49:  31 c0               xor ax, ax
0x00AF49:  31 c0               xor ax, ax
0x00AF49:  31 c0               xor ax, ax
0x00AF49:  31 c0               xor ax, ax
0x00AF4B:  50                  push ax
0x00AF4B:  50                  push ax
0x00AF4B:  50                  push ax
0x00AF4B:  50                  push ax
0x00AF4C:  31 c0               xor ax, ax
0x00AF4C:  31 c0               xor ax, ax
0x00AF4C:  31 c0               xor ax, ax
0x00AF4C:  31 c0               xor ax, ax
0x00AF4E:  50                  push ax
0x00AF4E:  50                  push ax
0x00AF4E:  50                  push ax
0x00AF4E:  50                  push ax
0x00AF4F:  31 c0               xor ax, ax
0x00AF4F:  31 c0               xor ax, ax
0x00AF4F:  31 c0               xor ax, ax
0x00AF4F:  31 c0               xor ax, ax
0x00AF51:  50                  push ax
0x00AF51:  50                  push ax
0x00AF51:  50                  push ax
0x00AF51:  50                  push ax
0x00AF52:  31 c0               xor ax, ax
0x00AF52:  31 c0               xor ax, ax
0x00AF52:  31 c0               xor ax, ax
0x00AF52:  31 c0               xor ax, ax
0x00AF54:  50                  push ax
0x00AF54:  50                  push ax
0x00AF54:  50                  push ax
0x00AF54:  50                  push ax
0x00AF55:  31 c0               xor ax, ax
0x00AF55:  31 c0               xor ax, ax
0x00AF55:  31 c0               xor ax, ax
0x00AF55:  31 c0               xor ax, ax
0x00AF57:  50                  push ax
0x00AF57:  50                  push ax
0x00AF57:  50                  push ax
0x00AF57:  50                  push ax
0x00AF58:  9a c2 01 ed 0e      lcall 0xeed, 0x1c2
0x00AF58:  9a c2 01 ed 0e      lcall 0xeed, 0x1c2
0x00AF58:  9a c2 01 ed 0e      lcall 0xeed, 0x1c2
0x00AF58:  9a c2 01 ed 0e      lcall 0xeed, 0x1c2
0x00AF5D:  80 3e 78 3b 00      cmp byte ptr [0x3b78], 0
0x00AF5D:  80 3e 78 3b 00      cmp byte ptr [0x3b78], 0
0x00AF5D:  80 3e 78 3b 00      cmp byte ptr [0x3b78], 0
0x00AF5D:  80 3e 78 3b 00      cmp byte ptr [0x3b78], 0
0x00AF5D:  80 3e 78 3b 00      cmp byte ptr [0x3b78], 0
0x00AF62:  75 58               jne 0xafbc
0x00AF62:  75 58               jne 0xafbc
0x00AF62:  75 58               jne 0xafbc
0x00AF62:  75 58               jne 0xafbc
0x00AF62:  75 58               jne 0xafbc
0x00AF64:  b8 14 00            mov ax, 0x14
0x00AF64:  b8 14 00            mov ax, 0x14
0x00AF64:  b8 14 00            mov ax, 0x14
0x00AF64:  b8 14 00            mov ax, 0x14
0x00AF64:  b8 14 00            mov ax, 0x14
0x00AF67:  50                  push ax
0x00AF67:  50                  push ax
0x00AF67:  50                  push ax
0x00AF67:  50                  push ax
0x00AF67:  50                  push ax
0x00AF68:  9a 4b 11 78 0f      lcall 0xf78, 0x114b
0x00AF68:  9a 4b 11 78 0f      lcall 0xf78, 0x114b
0x00AF68:  9a 4b 11 78 0f      lcall 0xf78, 0x114b
0x00AF68:  9a 4b 11 78 0f      lcall 0xf78, 0x114b
0x00AF68:  9a 4b 11 78 0f      lcall 0xf78, 0x114b
0x00AF6D:  09 c0               or ax, ax
0x00AF6D:  09 c0               or ax, ax
0x00AF6D:  09 c0               or ax, ax
0x00AF6D:  09 c0               or ax, ax
0x00AF6D:  09 c0               or ax, ax
0x00AF6F:  75 4b               jne 0xafbc
0x00AF6F:  75 4b               jne 0xafbc
0x00AF6F:  75 4b               jne 0xafbc
0x00AF6F:  75 4b               jne 0xafbc
0x00AF6F:  75 4b               jne 0xafbc
0x00AF71:  c6 06 78 3b 01      mov byte ptr [0x3b78], 1
0x00AF71:  c6 06 78 3b 01      mov byte ptr [0x3b78], 1
0x00AF71:  c6 06 78 3b 01      mov byte ptr [0x3b78], 1
0x00AF71:  c6 06 78 3b 01      mov byte ptr [0x3b78], 1
0x00AF71:  c6 06 78 3b 01      mov byte ptr [0x3b78], 1
0x00AF76:  80 3e 96 36 00      cmp byte ptr [0x3696], 0
0x00AF76:  80 3e 96 36 00      cmp byte ptr [0x3696], 0
0x00AF76:  80 3e 96 36 00      cmp byte ptr [0x3696], 0
0x00AF76:  80 3e 96 36 00      cmp byte ptr [0x3696], 0
0x00AF76:  80 3e 96 36 00      cmp byte ptr [0x3696], 0
0x00AF7B:  74 3f               je 0xafbc
0x00AF7B:  74 3f               je 0xafbc
0x00AF7B:  74 3f               je 0xafbc
0x00AF7B:  74 3f               je 0xafbc
0x00AF7B:  74 3f               je 0xafbc
0x00AF7D:  80 3e bb 38 01      cmp byte ptr [0x38bb], 1
0x00AF7D:  80 3e bb 38 01      cmp byte ptr [0x38bb], 1
0x00AF7D:  80 3e bb 38 01      cmp byte ptr [0x38bb], 1
0x00AF7D:  80 3e bb 38 01      cmp byte ptr [0x38bb], 1
0x00AF7D:  80 3e bb 38 01      cmp byte ptr [0x38bb], 1
0x00AF82:  75 38               jne 0xafbc
0x00AF82:  75 38               jne 0xafbc
0x00AF82:  75 38               jne 0xafbc
0x00AF82:  75 38               jne 0xafbc
0x00AF82:  75 38               jne 0xafbc
0x00AF84:  8d be 00 ff         lea di, [bp - 0x100]
0x00AF84:  8d be 00 ff         lea di, [bp - 0x100]
0x00AF84:  8d be 00 ff         lea di, [bp - 0x100]
0x00AF84:  8d be 00 ff         lea di, [bp - 0x100]
0x00AF84:  8d be 00 ff         lea di, [bp - 0x100]
0x00AF88:  16                  push ss
0x00AF88:  16                  push ss
0x00AF88:  16                  push ss
0x00AF88:  16                  push ss
0x00AF88:  16                  push ss
0x00AF89:  57                  push di
0x00AF89:  57                  push di
0x00AF89:  57                  push di
0x00AF89:  57                  push di
0x00AF89:  57                  push di
0x00AF8A:  bf 0b 85            mov di, 0x850b
0x00AF8A:  bf 0b 85            mov di, 0x850b
0x00AF8A:  bf 0b 85            mov di, 0x850b
0x00AF8A:  bf 0b 85            mov di, 0x850b
0x00AF8A:  bf 0b 85            mov di, 0x850b
0x00AF8D:  0e                  push cs
0x00AF8D:  0e                  push cs
0x00AF8D:  0e                  push cs
0x00AF8D:  0e                  push cs
0x00AF8D:  0e                  push cs
0x00AF8E:  57                  push di
0x00AF8E:  57                  push di
0x00AF8E:  57                  push di
0x00AF8E:  57                  push di
0x00AF8E:  57                  push di
0x00AF8F:  9a e7 0a 78 0f      lcall 0xf78, 0xae7
0x00AF8F:  9a e7 0a 78 0f      lcall 0xf78, 0xae7
0x00AF8F:  9a e7 0a 78 0f      lcall 0xf78, 0xae7
0x00AF8F:  9a e7 0a 78 0f      lcall 0xf78, 0xae7
0x00AF8F:  9a e7 0a 78 0f      lcall 0xf78, 0xae7
0x00AF94:  bf 9c 37            mov di, 0x379c
0x00AF94:  bf 9c 37            mov di, 0x379c
0x00AF94:  bf 9c 37            mov di, 0x379c
0x00AF94:  bf 9c 37            mov di, 0x379c
0x00AF94:  bf 9c 37            mov di, 0x379c
0x00AF97:  1e                  push ds
0x00AF97:  1e                  push ds
0x00AF97:  1e                  push ds
0x00AF97:  1e                  push ds
0x00AF97:  1e                  push ds
0x00AF98:  57                  push di
0x00AF98:  57                  push di
0x00AF98:  57                  push di
0x00AF98:  57                  push di
0x00AF98:  57                  push di
0x00AF99:  9a 66 0b 78 0f      lcall 0xf78, 0xb66
0x00AF99:  9a 66 0b 78 0f      lcall 0xf78, 0xb66
0x00AF99:  9a 66 0b 78 0f      lcall 0xf78, 0xb66
0x00AF99:  9a 66 0b 78 0f      lcall 0xf78, 0xb66
0x00AF99:  9a 66 0b 78 0f      lcall 0xf78, 0xb66
0x00AF9E:  bf 1a 85            mov di, 0x851a
0x00AF9E:  bf 1a 85            mov di, 0x851a
0x00AF9E:  bf 1a 85            mov di, 0x851a
0x00AF9E:  bf 1a 85            mov di, 0x851a
0x00AF9E:  bf 1a 85            mov di, 0x851a
0x00AFA1:  0e                  push cs
0x00AFA1:  0e                  push cs
0x00AFA1:  0e                  push cs
0x00AFA1:  0e                  push cs
0x00AFA1:  0e                  push cs
0x00AFA2:  57                  push di
0x00AFA2:  57                  push di
0x00AFA2:  57                  push di
0x00AFA2:  57                  push di
0x00AFA2:  57                  push di
0x00AFA3:  9a 66 0b 78 0f      lcall 0xf78, 0xb66
0x00AFA3:  9a 66 0b 78 0f      lcall 0xf78, 0xb66
0x00AFA3:  9a 66 0b 78 0f      lcall 0xf78, 0xb66
0x00AFA3:  9a 66 0b 78 0f      lcall 0xf78, 0xb66
0x00AFA3:  9a 66 0b 78 0f      lcall 0xf78, 0xb66
0x00AFA8:  31 c0               xor ax, ax
0x00AFA8:  31 c0               xor ax, ax
0x00AFA8:  31 c0               xor ax, ax
0x00AFA8:  31 c0               xor ax, ax
0x00AFA8:  31 c0               xor ax, ax
0x00AFAA:  50                  push ax
0x00AFAA:  50                  push ax
0x00AFAA:  50                  push ax
0x00AFAA:  50                  push ax
0x00AFAA:  50                  push ax
0x00AFAB:  31 c0               xor ax, ax
0x00AFAB:  31 c0               xor ax, ax
0x00AFAB:  31 c0               xor ax, ax
0x00AFAB:  31 c0               xor ax, ax
0x00AFAB:  31 c0               xor ax, ax
0x00AFAD:  50                  push ax
0x00AFAD:  50                  push ax
0x00AFAD:  50                  push ax
0x00AFAD:  50                  push ax
0x00AFAD:  50                  push ax
0x00AFAE:  31 c0               xor ax, ax
0x00AFAE:  31 c0               xor ax, ax
0x00AFAE:  31 c0               xor ax, ax
0x00AFAE:  31 c0               xor ax, ax
0x00AFAE:  31 c0               xor ax, ax
0x00AFB0:  50                  push ax
0x00AFB0:  50                  push ax
0x00AFB0:  50                  push ax
0x00AFB0:  50                  push ax
0x00AFB0:  50                  push ax
0x00AFB1:  31 c0               xor ax, ax
0x00AFB1:  31 c0               xor ax, ax
0x00AFB1:  31 c0               xor ax, ax
0x00AFB1:  31 c0               xor ax, ax
0x00AFB1:  31 c0               xor ax, ax
0x00AFB3:  50                  push ax
0x00AFB3:  50                  push ax
0x00AFB3:  50                  push ax
0x00AFB3:  50                  push ax
0x00AFB3:  50                  push ax
0x00AFB4:  31 c0               xor ax, ax
0x00AFB4:  31 c0               xor ax, ax
0x00AFB4:  31 c0               xor ax, ax
0x00AFB4:  31 c0               xor ax, ax
0x00AFB4:  31 c0               xor ax, ax
0x00AFB6:  50                  push ax
0x00AFB6:  50                  push ax
0x00AFB6:  50                  push ax
0x00AFB6:  50                  push ax
0x00AFB6:  50                  push ax
0x00AFB7:  9a c2 01 ed 0e      lcall 0xeed, 0x1c2
0x00AFB7:  9a c2 01 ed 0e      lcall 0xeed, 0x1c2
0x00AFB7:  9a c2 01 ed 0e      lcall 0xeed, 0x1c2
0x00AFB7:  9a c2 01 ed 0e      lcall 0xeed, 0x1c2
0x00AFB7:  9a c2 01 ed 0e      lcall 0xeed, 0x1c2
0x00AFBC:  80 3e 79 3b 00      cmp byte ptr [0x3b79], 0
0x00AFBC:  80 3e 79 3b 00      cmp byte ptr [0x3b79], 0
0x00AFBC:  80 3e 79 3b 00      cmp byte ptr [0x3b79], 0
0x00AFBC:  80 3e 79 3b 00      cmp byte ptr [0x3b79], 0
0x00AFBC:  80 3e 79 3b 00      cmp byte ptr [0x3b79], 0
0x00AFBC:  80 3e 79 3b 00      cmp byte ptr [0x3b79], 0
0x00AFC1:  75 5f               jne 0xb022
0x00AFC1:  75 5f               jne 0xb022
0x00AFC1:  75 5f               jne 0xb022
0x00AFC1:  75 5f               jne 0xb022
0x00AFC1:  75 5f               jne 0xb022
0x00AFC1:  75 5f               jne 0xb022
0x00AFC3:  b8 14 00            mov ax, 0x14
0x00AFC3:  b8 14 00            mov ax, 0x14
0x00AFC3:  b8 14 00            mov ax, 0x14
0x00AFC3:  b8 14 00            mov ax, 0x14
0x00AFC3:  b8 14 00            mov ax, 0x14
0x00AFC3:  b8 14 00            mov ax, 0x14
0x00AFC6:  50                  push ax
0x00AFC6:  50                  push ax
0x00AFC6:  50                  push ax
0x00AFC6:  50                  push ax
0x00AFC6:  50                  push ax
0x00AFC6:  50                  push ax
0x00AFC7:  9a 4b 11 78 0f      lcall 0xf78, 0x114b
0x00AFC7:  9a 4b 11 78 0f      lcall 0xf78, 0x114b
0x00AFC7:  9a 4b 11 78 0f      lcall 0xf78, 0x114b
0x00AFC7:  9a 4b 11 78 0f      lcall 0xf78, 0x114b
0x00AFC7:  9a 4b 11 78 0f      lcall 0xf78, 0x114b
0x00AFC7:  9a 4b 11 78 0f      lcall 0xf78, 0x114b
0x00AFCC:  09 c0               or ax, ax
0x00AFCC:  09 c0               or ax, ax
0x00AFCC:  09 c0               or ax, ax
0x00AFCC:  09 c0               or ax, ax
0x00AFCC:  09 c0               or ax, ax
0x00AFCC:  09 c0               or ax, ax
0x00AFCE:  75 52               jne 0xb022
0x00AFCE:  75 52               jne 0xb022
0x00AFCE:  75 52               jne 0xb022
0x00AFCE:  75 52               jne 0xb022
0x00AFCE:  75 52               jne 0xb022
0x00AFCE:  75 52               jne 0xb022
0x00AFD0:  c6 06 79 3b 01      mov byte ptr [0x3b79], 1
0x00AFD0:  c6 06 79 3b 01      mov byte ptr [0x3b79], 1
0x00AFD0:  c6 06 79 3b 01      mov byte ptr [0x3b79], 1
0x00AFD0:  c6 06 79 3b 01      mov byte ptr [0x3b79], 1
0x00AFD0:  c6 06 79 3b 01      mov byte ptr [0x3b79], 1
0x00AFD0:  c6 06 79 3b 01      mov byte ptr [0x3b79], 1
0x00AFD5:  80 3e 96 36 00      cmp byte ptr [0x3696], 0
0x00AFD5:  80 3e 96 36 00      cmp byte ptr [0x3696], 0
0x00AFD5:  80 3e 96 36 00      cmp byte ptr [0x3696], 0
0x00AFD5:  80 3e 96 36 00      cmp byte ptr [0x3696], 0
0x00AFD5:  80 3e 96 36 00      cmp byte ptr [0x3696], 0
0x00AFD5:  80 3e 96 36 00      cmp byte ptr [0x3696], 0
0x00AFDA:  74 46               je 0xb022
0x00AFDA:  74 46               je 0xb022
0x00AFDA:  74 46               je 0xb022
0x00AFDA:  74 46               je 0xb022
0x00AFDA:  74 46               je 0xb022
0x00AFDA:  74 46               je 0xb022
0x00AFDC:  83 3e cb 38 64      cmp word ptr [0x38cb], 0x64
0x00AFDC:  83 3e cb 38 64      cmp word ptr [0x38cb], 0x64
0x00AFDC:  83 3e cb 38 64      cmp word ptr [0x38cb], 0x64
0x00AFDC:  83 3e cb 38 64      cmp word ptr [0x38cb], 0x64
0x00AFDC:  83 3e cb 38 64      cmp word ptr [0x38cb], 0x64
0x00AFDC:  83 3e cb 38 64      cmp word ptr [0x38cb], 0x64
0x00AFE1:  7c 3f               jl 0xb022
0x00AFE1:  7c 3f               jl 0xb022
0x00AFE1:  7c 3f               jl 0xb022
0x00AFE1:  7c 3f               jl 0xb022
0x00AFE1:  7c 3f               jl 0xb022
0x00AFE1:  7c 3f               jl 0xb022
0x00AFE3:  80 3e bb 38 01      cmp byte ptr [0x38bb], 1
0x00AFE3:  80 3e bb 38 01      cmp byte ptr [0x38bb], 1
0x00AFE3:  80 3e bb 38 01      cmp byte ptr [0x38bb], 1
0x00AFE3:  80 3e bb 38 01      cmp byte ptr [0x38bb], 1
0x00AFE3:  80 3e bb 38 01      cmp byte ptr [0x38bb], 1
0x00AFE3:  80 3e bb 38 01      cmp byte ptr [0x38bb], 1
0x00AFE8:  75 38               jne 0xb022
0x00AFE8:  75 38               jne 0xb022
0x00AFE8:  75 38               jne 0xb022
0x00AFE8:  75 38               jne 0xb022
0x00AFE8:  75 38               jne 0xb022
0x00AFE8:  75 38               jne 0xb022
0x00AFEA:  8d be 00 ff         lea di, [bp - 0x100]
0x00AFEA:  8d be 00 ff         lea di, [bp - 0x100]
0x00AFEA:  8d be 00 ff         lea di, [bp - 0x100]
0x00AFEA:  8d be 00 ff         lea di, [bp - 0x100]
0x00AFEA:  8d be 00 ff         lea di, [bp - 0x100]
0x00AFEA:  8d be 00 ff         lea di, [bp - 0x100]
0x00AFEE:  16                  push ss
0x00AFEE:  16                  push ss
0x00AFEE:  16                  push ss
0x00AFEE:  16                  push ss
0x00AFEE:  16                  push ss
0x00AFEE:  16                  push ss
0x00AFEF:  57                  push di
0x00AFEF:  57                  push di
0x00AFEF:  57                  push di
0x00AFEF:  57                  push di
0x00AFEF:  57                  push di
0x00AFEF:  57                  push di
0x00AFF0:  bf 0b 85            mov di, 0x850b
0x00AFF0:  bf 0b 85            mov di, 0x850b
0x00AFF0:  bf 0b 85            mov di, 0x850b
0x00AFF0:  bf 0b 85            mov di, 0x850b
0x00AFF0:  bf 0b 85            mov di, 0x850b
0x00AFF0:  bf 0b 85            mov di, 0x850b
0x00AFF3:  0e                  push cs
0x00AFF3:  0e                  push cs
0x00AFF3:  0e                  push cs
0x00AFF3:  0e                  push cs
0x00AFF3:  0e                  push cs
0x00AFF3:  0e                  push cs
0x00AFF4:  57                  push di
0x00AFF4:  57                  push di
0x00AFF4:  57                  push di
0x00AFF4:  57                  push di
0x00AFF4:  57                  push di
0x00AFF4:  57                  push di
0x00AFF5:  9a e7 0a 78 0f      lcall 0xf78, 0xae7
0x00AFF5:  9a e7 0a 78 0f      lcall 0xf78, 0xae7
0x00AFF5:  9a e7 0a 78 0f      lcall 0xf78, 0xae7
0x00AFF5:  9a e7 0a 78 0f      lcall 0xf78, 0xae7
0x00AFF5:  9a e7 0a 78 0f      lcall 0xf78, 0xae7
0x00AFF5:  9a e7 0a 78 0f      lcall 0xf78, 0xae7
0x00AFFA:  bf 9c 37            mov di, 0x379c
0x00AFFA:  bf 9c 37            mov di, 0x379c
0x00AFFA:  bf 9c 37            mov di, 0x379c
0x00AFFA:  bf 9c 37            mov di, 0x379c
0x00AFFA:  bf 9c 37            mov di, 0x379c
0x00AFFA:  bf 9c 37            mov di, 0x379c
0x00AFFD:  1e                  push ds
0x00AFFD:  1e                  push ds
0x00AFFD:  1e                  push ds
0x00AFFD:  1e                  push ds
0x00AFFD:  1e                  push ds
0x00AFFD:  1e                  push ds
0x00AFFE:  57                  push di
0x00AFFE:  57                  push di
0x00AFFE:  57                  push di
0x00AFFE:  57                  push di
0x00AFFE:  57                  push di
0x00AFFE:  57                  push di
0x00AFFF:  9a 66 0b 78 0f      lcall 0xf78, 0xb66
0x00AFFF:  9a 66 0b 78 0f      lcall 0xf78, 0xb66
0x00AFFF:  9a 66 0b 78 0f      lcall 0xf78, 0xb66
0x00AFFF:  9a 66 0b 78 0f      lcall 0xf78, 0xb66
0x00AFFF:  9a 66 0b 78 0f      lcall 0xf78, 0xb66
0x00AFFF:  9a 66 0b 78 0f      lcall 0xf78, 0xb66
0x00B004:  bf 4a 85            mov di, 0x854a
0x00B004:  bf 4a 85            mov di, 0x854a
0x00B004:  bf 4a 85            mov di, 0x854a
0x00B004:  bf 4a 85            mov di, 0x854a
0x00B004:  bf 4a 85            mov di, 0x854a
0x00B004:  bf 4a 85            mov di, 0x854a
0x00B007:  0e                  push cs
0x00B007:  0e                  push cs
0x00B007:  0e                  push cs
0x00B007:  0e                  push cs
0x00B007:  0e                  push cs
0x00B007:  0e                  push cs
0x00B008:  57                  push di
0x00B008:  57                  push di
0x00B008:  57                  push di
0x00B008:  57                  push di
0x00B008:  57                  push di
0x00B008:  57                  push di
0x00B009:  9a 66 0b 78 0f      lcall 0xf78, 0xb66
0x00B009:  9a 66 0b 78 0f      lcall 0xf78, 0xb66
0x00B009:  9a 66 0b 78 0f      lcall 0xf78, 0xb66
0x00B009:  9a 66 0b 78 0f      lcall 0xf78, 0xb66
0x00B009:  9a 66 0b 78 0f      lcall 0xf78, 0xb66
0x00B009:  9a 66 0b 78 0f      lcall 0xf78, 0xb66
0x00B00E:  31 c0               xor ax, ax
0x00B00E:  31 c0               xor ax, ax
0x00B00E:  31 c0               xor ax, ax
0x00B00E:  31 c0               xor ax, ax
0x00B00E:  31 c0               xor ax, ax
0x00B00E:  31 c0               xor ax, ax
0x00B010:  50                  push ax
0x00B010:  50                  push ax
0x00B010:  50                  push ax
0x00B010:  50                  push ax
0x00B010:  50                  push ax
0x00B010:  50                  push ax
0x00B011:  31 c0               xor ax, ax
0x00B011:  31 c0               xor ax, ax
0x00B011:  31 c0               xor ax, ax
0x00B011:  31 c0               xor ax, ax
0x00B011:  31 c0               xor ax, ax
0x00B011:  31 c0               xor ax, ax
0x00B013:  50                  push ax
0x00B013:  50                  push ax
0x00B013:  50                  push ax
0x00B013:  50                  push ax
0x00B013:  50                  push ax
0x00B013:  50                  push ax
0x00B014:  31 c0               xor ax, ax
0x00B014:  31 c0               xor ax, ax
0x00B014:  31 c0               xor ax, ax
0x00B014:  31 c0               xor ax, ax
0x00B014:  31 c0               xor ax, ax
0x00B014:  31 c0               xor ax, ax
0x00B016:  50                  push ax
0x00B016:  50                  push ax
0x00B016:  50                  push ax
0x00B016:  50                  push ax
0x00B016:  50                  push ax
0x00B016:  50                  push ax
0x00B017:  31 c0               xor ax, ax
0x00B017:  31 c0               xor ax, ax
0x00B017:  31 c0               xor ax, ax
0x00B017:  31 c0               xor ax, ax
0x00B017:  31 c0               xor ax, ax
0x00B017:  31 c0               xor ax, ax
0x00B019:  50                  push ax
0x00B019:  50                  push ax
0x00B019:  50                  push ax
0x00B019:  50                  push ax
0x00B019:  50                  push ax
0x00B019:  50                  push ax
0x00B01A:  31 c0               xor ax, ax
0x00B01A:  31 c0               xor ax, ax
0x00B01A:  31 c0               xor ax, ax
0x00B01A:  31 c0               xor ax, ax
0x00B01A:  31 c0               xor ax, ax
0x00B01A:  31 c0               xor ax, ax
0x00B01C:  50                  push ax
0x00B01C:  50                  push ax
0x00B01C:  50                  push ax
0x00B01C:  50                  push ax
0x00B01C:  50                  push ax
0x00B01C:  50                  push ax
0x00B01D:  9a c2 01 ed 0e      lcall 0xeed, 0x1c2
0x00B01D:  9a c2 01 ed 0e      lcall 0xeed, 0x1c2
0x00B01D:  9a c2 01 ed 0e      lcall 0xeed, 0x1c2
0x00B01D:  9a c2 01 ed 0e      lcall 0xeed, 0x1c2
0x00B01D:  9a c2 01 ed 0e      lcall 0xeed, 0x1c2
0x00B01D:  9a c2 01 ed 0e      lcall 0xeed, 0x1c2
0x00B022:  80 3e bb 38 01      cmp byte ptr [0x38bb], 1
0x00B022:  80 3e bb 38 01      cmp byte ptr [0x38bb], 1
0x00B022:  80 3e bb 38 01      cmp byte ptr [0x38bb], 1
0x00B022:  80 3e bb 38 01      cmp byte ptr [0x38bb], 1
0x00B022:  80 3e bb 38 01      cmp byte ptr [0x38bb], 1
0x00B022:  80 3e bb 38 01      cmp byte ptr [0x38bb], 1
0x00B022:  80 3e bb 38 01      cmp byte ptr [0x38bb], 1
0x00B027:  74 03               je 0xb02c
0x00B027:  74 03               je 0xb02c
0x00B027:  74 03               je 0xb02c
0x00B027:  74 03               je 0xb02c
0x00B027:  74 03               je 0xb02c
0x00B027:  74 03               je 0xb02c
0x00B027:  74 03               je 0xb02c
0x00B029:  e9 a2 00            jmp 0xb0ce
0x00B029:  e9 a2 00            jmp 0xb0ce
0x00B029:  e9 a2 00            jmp 0xb0ce
0x00B029:  e9 a2 00            jmp 0xb0ce
0x00B029:  e9 a2 00            jmp 0xb0ce
0x00B029:  e9 a2 00            jmp 0xb0ce
0x00B029:  e9 a2 00            jmp 0xb0ce
0x00B02C:  b8 c8 00            mov ax, 0xc8
0x00B02F:  50                  push ax
0x00B030:  9a 4b 11 78 0f      lcall 0xf78, 0x114b
0x00B035:  09 c0               or ax, ax
0x00B037:  74 03               je 0xb03c
0x00B039:  e9 92 00            jmp 0xb0ce
0x00B03C:  bf 74 85            mov di, 0x8574
0x00B03F:  0e                  push cs
0x00B040:  57                  push di
0x00B041:  31 c0               xor ax, ax
0x00B043:  50                  push ax
0x00B044:  31 c0               xor ax, ax
0x00B046:  50                  push ax
0x00B047:  31 c0               xor ax, ax
0x00B049:  50                  push ax
0x00B04A:  31 c0               xor ax, ax
0x00B04C:  50                  push ax
0x00B04D:  31 c0               xor ax, ax
0x00B04F:  50                  push ax
0x00B050:  9a c2 01 ed 0e      lcall 0xeed, 0x1c2
0x00B055:  9a 1a 03 16 0f      lcall 0xf16, 0x31a
0x00B05A:  8d be 00 ff         lea di, [bp - 0x100]
0x00B05E:  16                  push ss
0x00B05F:  57                  push di
0x00B060:  bf 88 85            mov di, 0x8588
0x00B063:  0e                  push cs
0x00B064:  57                  push di
0x00B065:  9a e7 0a 78 0f      lcall 0xf78, 0xae7
0x00B06A:  bf 9c 37            mov di, 0x379c
0x00B06D:  1e                  push ds
0x00B06E:  57                  push di
0x00B06F:  9a 66 0b 78 0f      lcall 0xf78, 0xb66
0x00B074:  bf 93 85            mov di, 0x8593
0x00B077:  0e                  push cs
0x00B078:  57                  push di
0x00B079:  9a 66 0b 78 0f      lcall 0xf78, 0xb66
0x00B07E:  31 c0               xor ax, ax
0x00B080:  50                  push ax
0x00B081:  31 c0               xor ax, ax
0x00B083:  50                  push ax
0x00B084:  31 c0               xor ax, ax
0x00B086:  50                  push ax
0x00B087:  31 c0               xor ax, ax
0x00B089:  50                  push ax
0x00B08A:  31 c0               xor ax, ax
0x00B08C:  50                  push ax
0x00B08D:  9a c2 01 ed 0e      lcall 0xeed, 0x1c2
0x00B092:  9a 1a 03 16 0f      lcall 0xf16, 0x31a
0x00B097:  bf 95 85            mov di, 0x8595
0x00B09A:  0e                  push cs
0x00B09B:  57                  push di
0x00B09C:  31 c0               xor ax, ax
0x00B09E:  50                  push ax
0x00B09F:  31 c0               xor ax, ax
0x00B0A1:  50                  push ax
0x00B0A2:  31 c0               xor ax, ax
0x00B0A4:  50                  push ax
0x00B0A5:  31 c0               xor ax, ax
0x00B0A7:  50                  push ax
0x00B0A8:  31 c0               xor ax, ax
0x00B0AA:  50                  push ax
0x00B0AB:  9a c2 01 ed 0e      lcall 0xeed, 0x1c2
0x00B0B0:  9a 1a 03 16 0f      lcall 0xf16, 0x31a
0x00B0B5:  bf ad 85            mov di, 0x85ad
0x00B0B8:  0e                  push cs
0x00B0B9:  57                  push di
0x00B0BA:  31 c0               xor ax, ax
0x00B0BC:  50                  push ax
0x00B0BD:  31 c0               xor ax, ax
0x00B0BF:  50                  push ax
0x00B0C0:  31 c0               xor ax, ax
0x00B0C2:  50                  push ax
0x00B0C3:  31 c0               xor ax, ax
0x00B0C5:  50                  push ax
0x00B0C6:  31 c0               xor ax, ax
0x00B0C8:  50                  push ax
0x00B0C9:  9a c2 01 ed 0e      lcall 0xeed, 0x1c2
0x00B0CE:  80 3e bb 38 01      cmp byte ptr [0x38bb], 1
0x00B0D3:  74 03               je 0xb0d8
0x00B0D5:  e9 94 00            jmp 0xb16c
0x00B0D8:  b8 64 00            mov ax, 0x64
0x00B0DB:  50                  push ax
0x00B0DC:  9a 4b 11 78 0f      lcall 0xf78, 0x114b
0x00B0E1:  09 c0               or ax, ax
0x00B0E3:  75 39               jne 0xb11e
0x00B0E5:  80 3e 97 36 00      cmp byte ptr [0x3697], 0
0x00B0EA:  74 32               je 0xb11e
0x00B0EC:  bf de 85            mov di, 0x85de
0x00B0EF:  0e                  push cs
0x00B0F0:  57                  push di
0x00B0F1:  31 c0               xor ax, ax
0x00B0F3:  50                  push ax
0x00B0F4:  31 c0               xor ax, ax
0x00B0F6:  50                  push ax
0x00B0F7:  31 c0               xor ax, ax
0x00B0F9:  50                  push ax
0x00B0FA:  31 c0               xor ax, ax
0x00B0FC:  50                  push ax
0x00B0FD:  31 c0               xor ax, ax
0x00B0FF:  50                  push ax
0x00B100:  9a c2 01 ed 0e      lcall 0xeed, 0x1c2
0x00B105:  bf 1c 86            mov di, 0x861c
0x00B108:  0e                  push cs
0x00B109:  57                  push di
0x00B10A:  31 c0               xor ax, ax
0x00B10C:  50                  push ax
0x00B10D:  31 c0               xor ax, ax
0x00B10F:  50                  push ax
0x00B110:  31 c0               xor ax, ax
0x00B112:  50                  push ax
0x00B113:  31 c0               xor ax, ax
0x00B115:  50                  push ax
0x00B116:  31 c0               xor ax, ax
0x00B118:  50                  push ax
0x00B119:  9a c2 01 ed 0e      lcall 0xeed, 0x1c2
0x00B11E:  80 3e 76 3b 01      cmp byte ptr [0x3b76], 1
0x00B11E:  80 3e 76 3b 01      cmp byte ptr [0x3b76], 1
0x00B123:  75 20               jne 0xb145
0x00B123:  75 20               jne 0xb145
0x00B125:  80 3e 96 36 00      cmp byte ptr [0x3696], 0
0x00B125:  80 3e 96 36 00      cmp byte ptr [0x3696], 0
0x00B12A:  74 19               je 0xb145
0x00B12A:  74 19               je 0xb145
0x00B12C:  bf 35 86            mov di, 0x8635
0x00B12C:  bf 35 86            mov di, 0x8635
0x00B12F:  0e                  push cs
0x00B12F:  0e                  push cs
0x00B130:  57                  push di
0x00B130:  57                  push di
0x00B131:  31 c0               xor ax, ax
0x00B131:  31 c0               xor ax, ax
0x00B133:  50                  push ax
0x00B133:  50                  push ax
0x00B134:  31 c0               xor ax, ax
0x00B134:  31 c0               xor ax, ax
0x00B136:  50                  push ax
0x00B136:  50                  push ax
0x00B137:  31 c0               xor ax, ax
0x00B137:  31 c0               xor ax, ax
0x00B139:  50                  push ax
0x00B139:  50                  push ax
0x00B13A:  31 c0               xor ax, ax
0x00B13A:  31 c0               xor ax, ax
0x00B13C:  50                  push ax
0x00B13C:  50                  push ax
0x00B13D:  31 c0               xor ax, ax
0x00B13D:  31 c0               xor ax, ax
0x00B13F:  50                  push ax
0x00B13F:  50                  push ax
0x00B140:  9a c2 01 ed 0e      lcall 0xeed, 0x1c2
0x00B140:  9a c2 01 ed 0e      lcall 0xeed, 0x1c2
0x00B145:  80 3e 77 3b 01      cmp byte ptr [0x3b77], 1
0x00B145:  80 3e 77 3b 01      cmp byte ptr [0x3b77], 1
0x00B145:  80 3e 77 3b 01      cmp byte ptr [0x3b77], 1
0x00B14A:  75 20               jne 0xb16c
0x00B14A:  75 20               jne 0xb16c
0x00B14A:  75 20               jne 0xb16c
0x00B14C:  80 3e 96 36 00      cmp byte ptr [0x3696], 0
0x00B14C:  80 3e 96 36 00      cmp byte ptr [0x3696], 0
0x00B14C:  80 3e 96 36 00      cmp byte ptr [0x3696], 0
0x00B151:  74 19               je 0xb16c
0x00B151:  74 19               je 0xb16c
0x00B151:  74 19               je 0xb16c
0x00B153:  bf 80 86            mov di, 0x8680
0x00B153:  bf 80 86            mov di, 0x8680
0x00B153:  bf 80 86            mov di, 0x8680
0x00B156:  0e                  push cs
0x00B156:  0e                  push cs
0x00B156:  0e                  push cs
0x00B157:  57                  push di
0x00B157:  57                  push di
0x00B157:  57                  push di
0x00B158:  31 c0               xor ax, ax
0x00B158:  31 c0               xor ax, ax
0x00B158:  31 c0               xor ax, ax
0x00B15A:  50                  push ax
0x00B15A:  50                  push ax
0x00B15A:  50                  push ax
0x00B15B:  31 c0               xor ax, ax
0x00B15B:  31 c0               xor ax, ax
0x00B15B:  31 c0               xor ax, ax
0x00B15D:  50                  push ax
0x00B15D:  50                  push ax
0x00B15D:  50                  push ax
0x00B15E:  31 c0               xor ax, ax
0x00B15E:  31 c0               xor ax, ax
0x00B15E:  31 c0               xor ax, ax
0x00B160:  50                  push ax
0x00B160:  50                  push ax
0x00B160:  50                  push ax
0x00B161:  31 c0               xor ax, ax
0x00B161:  31 c0               xor ax, ax
0x00B161:  31 c0               xor ax, ax
0x00B163:  50                  push ax
0x00B163:  50                  push ax
0x00B163:  50                  push ax
0x00B164:  31 c0               xor ax, ax
0x00B164:  31 c0               xor ax, ax
0x00B164:  31 c0               xor ax, ax
0x00B166:  50                  push ax
0x00B166:  50                  push ax
0x00B166:  50                  push ax
0x00B167:  9a c2 01 ed 0e      lcall 0xeed, 0x1c2
0x00B167:  9a c2 01 ed 0e      lcall 0xeed, 0x1c2
0x00B167:  9a c2 01 ed 0e      lcall 0xeed, 0x1c2
0x00B16C:  80 3e 76 3b 00      cmp byte ptr [0x3b76], 0
0x00B16C:  80 3e 76 3b 00      cmp byte ptr [0x3b76], 0
0x00B16C:  80 3e 76 3b 00      cmp byte ptr [0x3b76], 0
0x00B16C:  80 3e 76 3b 00      cmp byte ptr [0x3b76], 0
0x00B171:  76 04               jbe 0xb177
0x00B171:  76 04               jbe 0xb177
0x00B171:  76 04               jbe 0xb177
0x00B171:  76 04               jbe 0xb177
0x00B173:  fe 0e 76 3b         dec byte ptr [0x3b76]
0x00B173:  fe 0e 76 3b         dec byte ptr [0x3b76]
0x00B173:  fe 0e 76 3b         dec byte ptr [0x3b76]
0x00B173:  fe 0e 76 3b         dec byte ptr [0x3b76]
0x00B177:  80 3e 77 3b 00      cmp byte ptr [0x3b77], 0
0x00B177:  80 3e 77 3b 00      cmp byte ptr [0x3b77], 0
0x00B177:  80 3e 77 3b 00      cmp byte ptr [0x3b77], 0
0x00B177:  80 3e 77 3b 00      cmp byte ptr [0x3b77], 0
0x00B177:  80 3e 77 3b 00      cmp byte ptr [0x3b77], 0
0x00B17C:  76 04               jbe 0xb182
0x00B17C:  76 04               jbe 0xb182
0x00B17C:  76 04               jbe 0xb182
0x00B17C:  76 04               jbe 0xb182
0x00B17C:  76 04               jbe 0xb182
0x00B17E:  fe 0e 77 3b         dec byte ptr [0x3b77]
0x00B17E:  fe 0e 77 3b         dec byte ptr [0x3b77]
0x00B17E:  fe 0e 77 3b         dec byte ptr [0x3b77]
0x00B17E:  fe 0e 77 3b         dec byte ptr [0x3b77]
0x00B17E:  fe 0e 77 3b         dec byte ptr [0x3b77]
0x00B182:  b8 0a 00            mov ax, 0xa
0x00B182:  b8 0a 00            mov ax, 0xa
0x00B182:  b8 0a 00            mov ax, 0xa
0x00B182:  b8 0a 00            mov ax, 0xa
0x00B182:  b8 0a 00            mov ax, 0xa
0x00B182:  b8 0a 00            mov ax, 0xa
0x00B185:  50                  push ax
0x00B185:  50                  push ax
0x00B185:  50                  push ax
0x00B185:  50                  push ax
0x00B185:  50                  push ax
0x00B185:  50                  push ax
0x00B186:  9a 4b 11 78 0f      lcall 0xf78, 0x114b
0x00B186:  9a 4b 11 78 0f      lcall 0xf78, 0x114b
0x00B186:  9a 4b 11 78 0f      lcall 0xf78, 0x114b
0x00B186:  9a 4b 11 78 0f      lcall 0xf78, 0x114b
0x00B186:  9a 4b 11 78 0f      lcall 0xf78, 0x114b
0x00B186:  9a 4b 11 78 0f      lcall 0xf78, 0x114b
0x00B18B:  09 c0               or ax, ax
0x00B18B:  09 c0               or ax, ax
0x00B18B:  09 c0               or ax, ax
0x00B18B:  09 c0               or ax, ax
0x00B18B:  09 c0               or ax, ax
0x00B18B:  09 c0               or ax, ax
0x00B18D:  75 25               jne 0xb1b4
0x00B18D:  75 25               jne 0xb1b4
0x00B18D:  75 25               jne 0xb1b4
0x00B18D:  75 25               jne 0xb1b4
0x00B18D:  75 25               jne 0xb1b4
0x00B18D:  75 25               jne 0xb1b4
0x00B18F:  80 3e 98 36 00      cmp byte ptr [0x3698], 0
0x00B18F:  80 3e 98 36 00      cmp byte ptr [0x3698], 0
0x00B18F:  80 3e 98 36 00      cmp byte ptr [0x3698], 0
0x00B18F:  80 3e 98 36 00      cmp byte ptr [0x3698], 0
0x00B18F:  80 3e 98 36 00      cmp byte ptr [0x3698], 0
0x00B18F:  80 3e 98 36 00      cmp byte ptr [0x3698], 0
0x00B194:  75 1e               jne 0xb1b4
0x00B194:  75 1e               jne 0xb1b4
0x00B194:  75 1e               jne 0xb1b4
0x00B194:  75 1e               jne 0xb1b4
0x00B194:  75 1e               jne 0xb1b4
0x00B194:  75 1e               jne 0xb1b4
0x00B196:  c6 06 98 36 01      mov byte ptr [0x3698], 1
0x00B196:  c6 06 98 36 01      mov byte ptr [0x3698], 1
0x00B196:  c6 06 98 36 01      mov byte ptr [0x3698], 1
0x00B196:  c6 06 98 36 01      mov byte ptr [0x3698], 1
0x00B196:  c6 06 98 36 01      mov byte ptr [0x3698], 1
0x00B196:  c6 06 98 36 01      mov byte ptr [0x3698], 1
0x00B19B:  bf bb 86            mov di, 0x86bb
0x00B19B:  bf bb 86            mov di, 0x86bb
0x00B19B:  bf bb 86            mov di, 0x86bb
0x00B19B:  bf bb 86            mov di, 0x86bb
0x00B19B:  bf bb 86            mov di, 0x86bb
0x00B19B:  bf bb 86            mov di, 0x86bb
0x00B19E:  0e                  push cs
0x00B19E:  0e                  push cs
0x00B19E:  0e                  push cs
0x00B19E:  0e                  push cs
0x00B19E:  0e                  push cs
0x00B19E:  0e                  push cs
0x00B19F:  57                  push di
0x00B19F:  57                  push di
0x00B19F:  57                  push di
0x00B19F:  57                  push di
0x00B19F:  57                  push di
0x00B19F:  57                  push di
0x00B1A0:  31 c0               xor ax, ax
0x00B1A0:  31 c0               xor ax, ax
0x00B1A0:  31 c0               xor ax, ax
0x00B1A0:  31 c0               xor ax, ax
0x00B1A0:  31 c0               xor ax, ax
0x00B1A0:  31 c0               xor ax, ax
0x00B1A2:  50                  push ax
0x00B1A2:  50                  push ax
0x00B1A2:  50                  push ax
0x00B1A2:  50                  push ax
0x00B1A2:  50                  push ax
0x00B1A2:  50                  push ax
0x00B1A3:  31 c0               xor ax, ax
0x00B1A3:  31 c0               xor ax, ax
0x00B1A3:  31 c0               xor ax, ax
0x00B1A3:  31 c0               xor ax, ax
0x00B1A3:  31 c0               xor ax, ax
0x00B1A3:  31 c0               xor ax, ax
0x00B1A5:  50                  push ax
0x00B1A5:  50                  push ax
0x00B1A5:  50                  push ax
0x00B1A5:  50                  push ax
0x00B1A5:  50                  push ax
0x00B1A5:  50                  push ax
0x00B1A6:  31 c0               xor ax, ax
0x00B1A6:  31 c0               xor ax, ax
0x00B1A6:  31 c0               xor ax, ax
0x00B1A6:  31 c0               xor ax, ax
0x00B1A6:  31 c0               xor ax, ax
0x00B1A6:  31 c0               xor ax, ax
0x00B1A8:  50                  push ax
0x00B1A8:  50                  push ax
0x00B1A8:  50                  push ax
0x00B1A8:  50                  push ax
0x00B1A8:  50                  push ax
0x00B1A8:  50                  push ax
0x00B1A9:  31 c0               xor ax, ax
0x00B1A9:  31 c0               xor ax, ax
0x00B1A9:  31 c0               xor ax, ax
0x00B1A9:  31 c0               xor ax, ax
0x00B1A9:  31 c0               xor ax, ax
0x00B1A9:  31 c0               xor ax, ax
0x00B1AB:  50                  push ax
0x00B1AB:  50                  push ax
0x00B1AB:  50                  push ax
0x00B1AB:  50                  push ax
0x00B1AB:  50                  push ax
0x00B1AB:  50                  push ax
0x00B1AC:  31 c0               xor ax, ax
0x00B1AC:  31 c0               xor ax, ax
0x00B1AC:  31 c0               xor ax, ax
0x00B1AC:  31 c0               xor ax, ax
0x00B1AC:  31 c0               xor ax, ax
0x00B1AC:  31 c0               xor ax, ax
0x00B1AE:  50                  push ax
0x00B1AE:  50                  push ax
0x00B1AE:  50                  push ax
0x00B1AE:  50                  push ax
0x00B1AE:  50                  push ax
0x00B1AE:  50                  push ax
0x00B1AF:  9a c2 01 ed 0e      lcall 0xeed, 0x1c2
0x00B1AF:  9a c2 01 ed 0e      lcall 0xeed, 0x1c2
0x00B1AF:  9a c2 01 ed 0e      lcall 0xeed, 0x1c2
0x00B1AF:  9a c2 01 ed 0e      lcall 0xeed, 0x1c2
0x00B1AF:  9a c2 01 ed 0e      lcall 0xeed, 0x1c2
0x00B1AF:  9a c2 01 ed 0e      lcall 0xeed, 0x1c2
0x00B1B4:  b8 0a 00            mov ax, 0xa
0x00B1B4:  b8 0a 00            mov ax, 0xa
0x00B1B4:  b8 0a 00            mov ax, 0xa
0x00B1B4:  b8 0a 00            mov ax, 0xa
0x00B1B4:  b8 0a 00            mov ax, 0xa
0x00B1B4:  b8 0a 00            mov ax, 0xa
0x00B1B4:  b8 0a 00            mov ax, 0xa
0x00B1B7:  50                  push ax
0x00B1B7:  50                  push ax
0x00B1B7:  50                  push ax
0x00B1B7:  50                  push ax
0x00B1B7:  50                  push ax
0x00B1B7:  50                  push ax
0x00B1B7:  50                  push ax
0x00B1B8:  9a 4b 11 78 0f      lcall 0xf78, 0x114b
0x00B1B8:  9a 4b 11 78 0f      lcall 0xf78, 0x114b
0x00B1B8:  9a 4b 11 78 0f      lcall 0xf78, 0x114b
0x00B1B8:  9a 4b 11 78 0f      lcall 0xf78, 0x114b
0x00B1B8:  9a 4b 11 78 0f      lcall 0xf78, 0x114b
0x00B1B8:  9a 4b 11 78 0f      lcall 0xf78, 0x114b
0x00B1B8:  9a 4b 11 78 0f      lcall 0xf78, 0x114b
0x00B1BD:  09 c0               or ax, ax
0x00B1BD:  09 c0               or ax, ax
0x00B1BD:  09 c0               or ax, ax
0x00B1BD:  09 c0               or ax, ax
0x00B1BD:  09 c0               or ax, ax
0x00B1BD:  09 c0               or ax, ax
0x00B1BD:  09 c0               or ax, ax
0x00B1BF:  75 25               jne 0xb1e6
0x00B1BF:  75 25               jne 0xb1e6
0x00B1BF:  75 25               jne 0xb1e6
0x00B1BF:  75 25               jne 0xb1e6
0x00B1BF:  75 25               jne 0xb1e6
0x00B1BF:  75 25               jne 0xb1e6
0x00B1BF:  75 25               jne 0xb1e6
0x00B1C1:  80 3e 94 36 00      cmp byte ptr [0x3694], 0
0x00B1C1:  80 3e 94 36 00      cmp byte ptr [0x3694], 0
0x00B1C1:  80 3e 94 36 00      cmp byte ptr [0x3694], 0
0x00B1C1:  80 3e 94 36 00      cmp byte ptr [0x3694], 0
0x00B1C1:  80 3e 94 36 00      cmp byte ptr [0x3694], 0
0x00B1C1:  80 3e 94 36 00      cmp byte ptr [0x3694], 0
0x00B1C1:  80 3e 94 36 00      cmp byte ptr [0x3694], 0
0x00B1C6:  75 1e               jne 0xb1e6
0x00B1C6:  75 1e               jne 0xb1e6
0x00B1C6:  75 1e               jne 0xb1e6
0x00B1C6:  75 1e               jne 0xb1e6
0x00B1C6:  75 1e               jne 0xb1e6
0x00B1C6:  75 1e               jne 0xb1e6
0x00B1C6:  75 1e               jne 0xb1e6
0x00B1C8:  c6 06 94 36 01      mov byte ptr [0x3694], 1
0x00B1C8:  c6 06 94 36 01      mov byte ptr [0x3694], 1
0x00B1C8:  c6 06 94 36 01      mov byte ptr [0x3694], 1
0x00B1C8:  c6 06 94 36 01      mov byte ptr [0x3694], 1
0x00B1C8:  c6 06 94 36 01      mov byte ptr [0x3694], 1
0x00B1C8:  c6 06 94 36 01      mov byte ptr [0x3694], 1
0x00B1C8:  c6 06 94 36 01      mov byte ptr [0x3694], 1
0x00B1CD:  bf e2 86            mov di, 0x86e2
0x00B1CD:  bf e2 86            mov di, 0x86e2
0x00B1CD:  bf e2 86            mov di, 0x86e2
0x00B1CD:  bf e2 86            mov di, 0x86e2
0x00B1CD:  bf e2 86            mov di, 0x86e2
0x00B1CD:  bf e2 86            mov di, 0x86e2
0x00B1CD:  bf e2 86            mov di, 0x86e2
0x00B1D0:  0e                  push cs
0x00B1D0:  0e                  push cs
0x00B1D0:  0e                  push cs
0x00B1D0:  0e                  push cs
0x00B1D0:  0e                  push cs
0x00B1D0:  0e                  push cs
0x00B1D0:  0e                  push cs
0x00B1D1:  57                  push di
0x00B1D1:  57                  push di
0x00B1D1:  57                  push di
0x00B1D1:  57                  push di
0x00B1D1:  57                  push di
0x00B1D1:  57                  push di
0x00B1D1:  57                  push di
0x00B1D2:  31 c0               xor ax, ax
0x00B1D2:  31 c0               xor ax, ax
0x00B1D2:  31 c0               xor ax, ax
0x00B1D2:  31 c0               xor ax, ax
0x00B1D2:  31 c0               xor ax, ax
0x00B1D2:  31 c0               xor ax, ax
0x00B1D2:  31 c0               xor ax, ax
0x00B1D4:  50                  push ax
0x00B1D4:  50                  push ax
0x00B1D4:  50                  push ax
0x00B1D4:  50                  push ax
0x00B1D4:  50                  push ax
0x00B1D4:  50                  push ax
0x00B1D4:  50                  push ax
0x00B1D5:  31 c0               xor ax, ax
0x00B1D5:  31 c0               xor ax, ax
0x00B1D5:  31 c0               xor ax, ax
0x00B1D5:  31 c0               xor ax, ax
0x00B1D5:  31 c0               xor ax, ax
0x00B1D5:  31 c0               xor ax, ax
0x00B1D5:  31 c0               xor ax, ax
0x00B1D7:  50                  push ax
0x00B1D7:  50                  push ax
0x00B1D7:  50                  push ax
0x00B1D7:  50                  push ax
0x00B1D7:  50                  push ax
0x00B1D7:  50                  push ax
0x00B1D7:  50                  push ax
0x00B1D8:  31 c0               xor ax, ax
0x00B1D8:  31 c0               xor ax, ax
0x00B1D8:  31 c0               xor ax, ax
0x00B1D8:  31 c0               xor ax, ax
0x00B1D8:  31 c0               xor ax, ax
0x00B1D8:  31 c0               xor ax, ax
0x00B1D8:  31 c0               xor ax, ax
0x00B1DA:  50                  push ax
0x00B1DA:  50                  push ax
0x00B1DA:  50                  push ax
0x00B1DA:  50                  push ax
0x00B1DA:  50                  push ax
0x00B1DA:  50                  push ax
0x00B1DA:  50                  push ax
0x00B1DB:  31 c0               xor ax, ax
0x00B1DB:  31 c0               xor ax, ax
0x00B1DB:  31 c0               xor ax, ax
0x00B1DB:  31 c0               xor ax, ax
0x00B1DB:  31 c0               xor ax, ax
0x00B1DB:  31 c0               xor ax, ax
0x00B1DB:  31 c0               xor ax, ax
0x00B1DD:  50                  push ax
0x00B1DD:  50                  push ax
0x00B1DD:  50                  push ax
0x00B1DD:  50                  push ax
0x00B1DD:  50                  push ax
0x00B1DD:  50                  push ax
0x00B1DD:  50                  push ax
0x00B1DE:  31 c0               xor ax, ax
0x00B1DE:  31 c0               xor ax, ax
0x00B1DE:  31 c0               xor ax, ax
0x00B1DE:  31 c0               xor ax, ax
0x00B1DE:  31 c0               xor ax, ax
0x00B1DE:  31 c0               xor ax, ax
0x00B1DE:  31 c0               xor ax, ax
0x00B1E0:  50                  push ax
0x00B1E0:  50                  push ax
0x00B1E0:  50                  push ax
0x00B1E0:  50                  push ax
0x00B1E0:  50                  push ax
0x00B1E0:  50                  push ax
0x00B1E0:  50                  push ax
0x00B1E1:  9a c2 01 ed 0e      lcall 0xeed, 0x1c2
0x00B1E1:  9a c2 01 ed 0e      lcall 0xeed, 0x1c2
0x00B1E1:  9a c2 01 ed 0e      lcall 0xeed, 0x1c2
0x00B1E1:  9a c2 01 ed 0e      lcall 0xeed, 0x1c2
0x00B1E1:  9a c2 01 ed 0e      lcall 0xeed, 0x1c2
0x00B1E1:  9a c2 01 ed 0e      lcall 0xeed, 0x1c2
0x00B1E1:  9a c2 01 ed 0e      lcall 0xeed, 0x1c2
0x00B1E6:  b8 64 00            mov ax, 0x64
0x00B1E6:  b8 64 00            mov ax, 0x64
0x00B1E6:  b8 64 00            mov ax, 0x64
0x00B1E6:  b8 64 00            mov ax, 0x64
0x00B1E6:  b8 64 00            mov ax, 0x64
0x00B1E6:  b8 64 00            mov ax, 0x64
0x00B1E6:  b8 64 00            mov ax, 0x64
0x00B1E6:  b8 64 00            mov ax, 0x64
0x00B1E9:  50                  push ax
0x00B1E9:  50                  push ax
0x00B1E9:  50                  push ax
0x00B1E9:  50                  push ax
0x00B1E9:  50                  push ax
0x00B1E9:  50                  push ax
0x00B1E9:  50                  push ax
0x00B1E9:  50                  push ax
0x00B1EA:  9a 4b 11 78 0f      lcall 0xf78, 0x114b
0x00B1EA:  9a 4b 11 78 0f      lcall 0xf78, 0x114b
0x00B1EA:  9a 4b 11 78 0f      lcall 0xf78, 0x114b
0x00B1EA:  9a 4b 11 78 0f      lcall 0xf78, 0x114b
0x00B1EA:  9a 4b 11 78 0f      lcall 0xf78, 0x114b
0x00B1EA:  9a 4b 11 78 0f      lcall 0xf78, 0x114b
0x00B1EA:  9a 4b 11 78 0f      lcall 0xf78, 0x114b
0x00B1EA:  9a 4b 11 78 0f      lcall 0xf78, 0x114b
0x00B1EF:  09 c0               or ax, ax
0x00B1EF:  09 c0               or ax, ax
0x00B1EF:  09 c0               or ax, ax
0x00B1EF:  09 c0               or ax, ax
0x00B1EF:  09 c0               or ax, ax
0x00B1EF:  09 c0               or ax, ax
0x00B1EF:  09 c0               or ax, ax
0x00B1EF:  09 c0               or ax, ax
0x00B1F1:  75 25               jne 0xb218
0x00B1F1:  75 25               jne 0xb218
0x00B1F1:  75 25               jne 0xb218
0x00B1F1:  75 25               jne 0xb218
0x00B1F1:  75 25               jne 0xb218
0x00B1F1:  75 25               jne 0xb218
0x00B1F1:  75 25               jne 0xb218
0x00B1F1:  75 25               jne 0xb218
0x00B1F3:  80 3e 99 36 00      cmp byte ptr [0x3699], 0
0x00B1F3:  80 3e 99 36 00      cmp byte ptr [0x3699], 0
0x00B1F3:  80 3e 99 36 00      cmp byte ptr [0x3699], 0
0x00B1F3:  80 3e 99 36 00      cmp byte ptr [0x3699], 0
0x00B1F3:  80 3e 99 36 00      cmp byte ptr [0x3699], 0
0x00B1F3:  80 3e 99 36 00      cmp byte ptr [0x3699], 0
0x00B1F3:  80 3e 99 36 00      cmp byte ptr [0x3699], 0
0x00B1F3:  80 3e 99 36 00      cmp byte ptr [0x3699], 0
0x00B1F8:  75 1e               jne 0xb218
0x00B1F8:  75 1e               jne 0xb218
0x00B1F8:  75 1e               jne 0xb218
0x00B1F8:  75 1e               jne 0xb218
0x00B1F8:  75 1e               jne 0xb218
0x00B1F8:  75 1e               jne 0xb218
0x00B1F8:  75 1e               jne 0xb218
0x00B1F8:  75 1e               jne 0xb218
0x00B1FA:  c6 06 99 36 01      mov byte ptr [0x3699], 1
0x00B1FA:  c6 06 99 36 01      mov byte ptr [0x3699], 1
0x00B1FA:  c6 06 99 36 01      mov byte ptr [0x3699], 1
0x00B1FA:  c6 06 99 36 01      mov byte ptr [0x3699], 1
0x00B1FA:  c6 06 99 36 01      mov byte ptr [0x3699], 1
0x00B1FA:  c6 06 99 36 01      mov byte ptr [0x3699], 1
0x00B1FA:  c6 06 99 36 01      mov byte ptr [0x3699], 1
0x00B1FA:  c6 06 99 36 01      mov byte ptr [0x3699], 1
0x00B1FF:  bf f4 86            mov di, 0x86f4
0x00B1FF:  bf f4 86            mov di, 0x86f4
0x00B1FF:  bf f4 86            mov di, 0x86f4
0x00B1FF:  bf f4 86            mov di, 0x86f4
0x00B1FF:  bf f4 86            mov di, 0x86f4
0x00B1FF:  bf f4 86            mov di, 0x86f4
0x00B1FF:  bf f4 86            mov di, 0x86f4
0x00B1FF:  bf f4 86            mov di, 0x86f4
0x00B202:  0e                  push cs
0x00B202:  0e                  push cs
0x00B202:  0e                  push cs
0x00B202:  0e                  push cs
0x00B202:  0e                  push cs
0x00B202:  0e                  push cs
0x00B202:  0e                  push cs
0x00B202:  0e                  push cs
0x00B203:  57                  push di
0x00B203:  57                  push di
0x00B203:  57                  push di
0x00B203:  57                  push di
0x00B203:  57                  push di
0x00B203:  57                  push di
0x00B203:  57                  push di
0x00B203:  57                  push di
0x00B204:  31 c0               xor ax, ax
0x00B204:  31 c0               xor ax, ax
0x00B204:  31 c0               xor ax, ax
0x00B204:  31 c0               xor ax, ax
0x00B204:  31 c0               xor ax, ax
0x00B204:  31 c0               xor ax, ax
0x00B204:  31 c0               xor ax, ax
0x00B204:  31 c0               xor ax, ax
0x00B206:  50                  push ax
0x00B206:  50                  push ax
0x00B206:  50                  push ax
0x00B206:  50                  push ax
0x00B206:  50                  push ax
0x00B206:  50                  push ax
0x00B206:  50                  push ax
0x00B206:  50                  push ax
0x00B207:  31 c0               xor ax, ax
0x00B207:  31 c0               xor ax, ax
0x00B207:  31 c0               xor ax, ax
0x00B207:  31 c0               xor ax, ax
0x00B207:  31 c0               xor ax, ax
0x00B207:  31 c0               xor ax, ax
0x00B207:  31 c0               xor ax, ax
0x00B207:  31 c0               xor ax, ax
0x00B209:  50                  push ax
0x00B209:  50                  push ax
0x00B209:  50                  push ax
0x00B209:  50                  push ax
0x00B209:  50                  push ax
0x00B209:  50                  push ax
0x00B209:  50                  push ax
0x00B209:  50                  push ax
0x00B20A:  31 c0               xor ax, ax
0x00B20A:  31 c0               xor ax, ax
0x00B20A:  31 c0               xor ax, ax
0x00B20A:  31 c0               xor ax, ax
0x00B20A:  31 c0               xor ax, ax
0x00B20A:  31 c0               xor ax, ax
0x00B20A:  31 c0               xor ax, ax
0x00B20A:  31 c0               xor ax, ax
0x00B20C:  50                  push ax
0x00B20C:  50                  push ax
0x00B20C:  50                  push ax
0x00B20C:  50                  push ax
0x00B20C:  50                  push ax
0x00B20C:  50                  push ax
0x00B20C:  50                  push ax
0x00B20C:  50                  push ax
0x00B20D:  31 c0               xor ax, ax
0x00B20D:  31 c0               xor ax, ax
0x00B20D:  31 c0               xor ax, ax
0x00B20D:  31 c0               xor ax, ax
0x00B20D:  31 c0               xor ax, ax
0x00B20D:  31 c0               xor ax, ax
0x00B20D:  31 c0               xor ax, ax
0x00B20D:  31 c0               xor ax, ax
0x00B20F:  50                  push ax
0x00B20F:  50                  push ax
0x00B20F:  50                  push ax
0x00B20F:  50                  push ax
0x00B20F:  50                  push ax
0x00B20F:  50                  push ax
0x00B20F:  50                  push ax
0x00B20F:  50                  push ax
0x00B210:  31 c0               xor ax, ax
0x00B210:  31 c0               xor ax, ax
0x00B210:  31 c0               xor ax, ax
0x00B210:  31 c0               xor ax, ax
0x00B210:  31 c0               xor ax, ax
0x00B210:  31 c0               xor ax, ax
0x00B210:  31 c0               xor ax, ax
0x00B210:  31 c0               xor ax, ax
0x00B212:  50                  push ax
0x00B212:  50                  push ax
0x00B212:  50                  push ax
0x00B212:  50                  push ax
0x00B212:  50                  push ax
0x00B212:  50                  push ax
0x00B212:  50                  push ax
0x00B212:  50                  push ax
0x00B213:  9a c2 01 ed 0e      lcall 0xeed, 0x1c2
0x00B213:  9a c2 01 ed 0e      lcall 0xeed, 0x1c2
0x00B213:  9a c2 01 ed 0e      lcall 0xeed, 0x1c2
0x00B213:  9a c2 01 ed 0e      lcall 0xeed, 0x1c2
0x00B213:  9a c2 01 ed 0e      lcall 0xeed, 0x1c2
0x00B213:  9a c2 01 ed 0e      lcall 0xeed, 0x1c2
0x00B213:  9a c2 01 ed 0e      lcall 0xeed, 0x1c2
0x00B213:  9a c2 01 ed 0e      lcall 0xeed, 0x1c2
0x00B218:  b8 64 00            mov ax, 0x64
0x00B218:  b8 64 00            mov ax, 0x64
0x00B218:  b8 64 00            mov ax, 0x64
0x00B218:  b8 64 00            mov ax, 0x64
0x00B218:  b8 64 00            mov ax, 0x64
0x00B218:  b8 64 00            mov ax, 0x64
0x00B218:  b8 64 00            mov ax, 0x64
0x00B218:  b8 64 00            mov ax, 0x64
0x00B218:  b8 64 00            mov ax, 0x64
0x00B21B:  50                  push ax
0x00B21B:  50                  push ax
0x00B21B:  50                  push ax
0x00B21B:  50                  push ax
0x00B21B:  50                  push ax
0x00B21B:  50                  push ax
0x00B21B:  50                  push ax
0x00B21B:  50                  push ax
0x00B21B:  50                  push ax
0x00B21C:  9a 4b 11 78 0f      lcall 0xf78, 0x114b
0x00B21C:  9a 4b 11 78 0f      lcall 0xf78, 0x114b
0x00B21C:  9a 4b 11 78 0f      lcall 0xf78, 0x114b
0x00B21C:  9a 4b 11 78 0f      lcall 0xf78, 0x114b
0x00B21C:  9a 4b 11 78 0f      lcall 0xf78, 0x114b
0x00B21C:  9a 4b 11 78 0f      lcall 0xf78, 0x114b
0x00B21C:  9a 4b 11 78 0f      lcall 0xf78, 0x114b
0x00B21C:  9a 4b 11 78 0f      lcall 0xf78, 0x114b
0x00B21C:  9a 4b 11 78 0f      lcall 0xf78, 0x114b
0x00B221:  09 c0               or ax, ax
0x00B221:  09 c0               or ax, ax
0x00B221:  09 c0               or ax, ax
0x00B221:  09 c0               or ax, ax
0x00B221:  09 c0               or ax, ax
0x00B221:  09 c0               or ax, ax
0x00B221:  09 c0               or ax, ax
0x00B221:  09 c0               or ax, ax
0x00B221:  09 c0               or ax, ax
0x00B223:  75 25               jne 0xb24a
0x00B223:  75 25               jne 0xb24a
0x00B223:  75 25               jne 0xb24a
0x00B223:  75 25               jne 0xb24a
0x00B223:  75 25               jne 0xb24a
0x00B223:  75 25               jne 0xb24a
0x00B223:  75 25               jne 0xb24a
0x00B223:  75 25               jne 0xb24a
0x00B223:  75 25               jne 0xb24a
0x00B225:  80 3e 9a 36 00      cmp byte ptr [0x369a], 0
0x00B225:  80 3e 9a 36 00      cmp byte ptr [0x369a], 0
0x00B225:  80 3e 9a 36 00      cmp byte ptr [0x369a], 0
0x00B225:  80 3e 9a 36 00      cmp byte ptr [0x369a], 0
0x00B225:  80 3e 9a 36 00      cmp byte ptr [0x369a], 0
0x00B225:  80 3e 9a 36 00      cmp byte ptr [0x369a], 0
0x00B225:  80 3e 9a 36 00      cmp byte ptr [0x369a], 0
0x00B225:  80 3e 9a 36 00      cmp byte ptr [0x369a], 0
0x00B225:  80 3e 9a 36 00      cmp byte ptr [0x369a], 0
0x00B22A:  75 1e               jne 0xb24a
0x00B22A:  75 1e               jne 0xb24a
0x00B22A:  75 1e               jne 0xb24a
0x00B22A:  75 1e               jne 0xb24a
0x00B22A:  75 1e               jne 0xb24a
0x00B22A:  75 1e               jne 0xb24a
0x00B22A:  75 1e               jne 0xb24a
0x00B22A:  75 1e               jne 0xb24a
0x00B22A:  75 1e               jne 0xb24a
0x00B22C:  c6 06 9a 36 01      mov byte ptr [0x369a], 1
0x00B22C:  c6 06 9a 36 01      mov byte ptr [0x369a], 1
0x00B22C:  c6 06 9a 36 01      mov byte ptr [0x369a], 1
0x00B22C:  c6 06 9a 36 01      mov byte ptr [0x369a], 1
0x00B22C:  c6 06 9a 36 01      mov byte ptr [0x369a], 1
0x00B22C:  c6 06 9a 36 01      mov byte ptr [0x369a], 1
0x00B22C:  c6 06 9a 36 01      mov byte ptr [0x369a], 1
0x00B22C:  c6 06 9a 36 01      mov byte ptr [0x369a], 1
0x00B22C:  c6 06 9a 36 01      mov byte ptr [0x369a], 1
0x00B231:  bf 2e 87            mov di, 0x872e
0x00B231:  bf 2e 87            mov di, 0x872e
0x00B231:  bf 2e 87            mov di, 0x872e
0x00B231:  bf 2e 87            mov di, 0x872e
0x00B231:  bf 2e 87            mov di, 0x872e
0x00B231:  bf 2e 87            mov di, 0x872e
0x00B231:  bf 2e 87            mov di, 0x872e
0x00B231:  bf 2e 87            mov di, 0x872e
0x00B231:  bf 2e 87            mov di, 0x872e
0x00B234:  0e                  push cs
0x00B234:  0e                  push cs
0x00B234:  0e                  push cs
0x00B234:  0e                  push cs
0x00B234:  0e                  push cs
0x00B234:  0e                  push cs
0x00B234:  0e                  push cs
0x00B234:  0e                  push cs
0x00B234:  0e                  push cs
0x00B235:  57                  push di
0x00B235:  57                  push di
0x00B235:  57                  push di
0x00B235:  57                  push di
0x00B235:  57                  push di
0x00B235:  57                  push di
0x00B235:  57                  push di
0x00B235:  57                  push di
0x00B235:  57                  push di
0x00B236:  31 c0               xor ax, ax
0x00B236:  31 c0               xor ax, ax
0x00B236:  31 c0               xor ax, ax
0x00B236:  31 c0               xor ax, ax
0x00B236:  31 c0               xor ax, ax
0x00B236:  31 c0               xor ax, ax
0x00B236:  31 c0               xor ax, ax
0x00B236:  31 c0               xor ax, ax
0x00B236:  31 c0               xor ax, ax
0x00B238:  50                  push ax
0x00B238:  50                  push ax
0x00B238:  50                  push ax
0x00B238:  50                  push ax
0x00B238:  50                  push ax
0x00B238:  50                  push ax
0x00B238:  50                  push ax
0x00B238:  50                  push ax
0x00B238:  50                  push ax
0x00B239:  31 c0               xor ax, ax
0x00B239:  31 c0               xor ax, ax
0x00B239:  31 c0               xor ax, ax
0x00B239:  31 c0               xor ax, ax
0x00B239:  31 c0               xor ax, ax
0x00B239:  31 c0               xor ax, ax
0x00B239:  31 c0               xor ax, ax
0x00B239:  31 c0               xor ax, ax
0x00B239:  31 c0               xor ax, ax
0x00B23B:  50                  push ax
0x00B23B:  50                  push ax
0x00B23B:  50                  push ax
0x00B23B:  50                  push ax
0x00B23B:  50                  push ax
0x00B23B:  50                  push ax
0x00B23B:  50                  push ax
0x00B23B:  50                  push ax
0x00B23B:  50                  push ax
0x00B23C:  31 c0               xor ax, ax
0x00B23C:  31 c0               xor ax, ax
0x00B23C:  31 c0               xor ax, ax
0x00B23C:  31 c0               xor ax, ax
0x00B23C:  31 c0               xor ax, ax
0x00B23C:  31 c0               xor ax, ax
0x00B23C:  31 c0               xor ax, ax
0x00B23C:  31 c0               xor ax, ax
0x00B23C:  31 c0               xor ax, ax
0x00B23E:  50                  push ax
0x00B23E:  50                  push ax
0x00B23E:  50                  push ax
0x00B23E:  50                  push ax
0x00B23E:  50                  push ax
0x00B23E:  50                  push ax
0x00B23E:  50                  push ax
0x00B23E:  50                  push ax
0x00B23E:  50                  push ax
0x00B23F:  31 c0               xor ax, ax
0x00B23F:  31 c0               xor ax, ax
0x00B23F:  31 c0               xor ax, ax
0x00B23F:  31 c0               xor ax, ax
0x00B23F:  31 c0               xor ax, ax
0x00B23F:  31 c0               xor ax, ax
0x00B23F:  31 c0               xor ax, ax
0x00B23F:  31 c0               xor ax, ax
0x00B23F:  31 c0               xor ax, ax
0x00B241:  50                  push ax
0x00B241:  50                  push ax
0x00B241:  50                  push ax
0x00B241:  50                  push ax
0x00B241:  50                  push ax
0x00B241:  50                  push ax
0x00B241:  50                  push ax
0x00B241:  50                  push ax
0x00B241:  50                  push ax
0x00B242:  31 c0               xor ax, ax
0x00B242:  31 c0               xor ax, ax
0x00B242:  31 c0               xor ax, ax
0x00B242:  31 c0               xor ax, ax
0x00B242:  31 c0               xor ax, ax
0x00B242:  31 c0               xor ax, ax
0x00B242:  31 c0               xor ax, ax
0x00B242:  31 c0               xor ax, ax
0x00B242:  31 c0               xor ax, ax
0x00B244:  50                  push ax
0x00B244:  50                  push ax
0x00B244:  50                  push ax
0x00B244:  50                  push ax
0x00B244:  50                  push ax
0x00B244:  50                  push ax
0x00B244:  50                  push ax
0x00B244:  50                  push ax
0x00B244:  50                  push ax
0x00B245:  9a c2 01 ed 0e      lcall 0xeed, 0x1c2
0x00B245:  9a c2 01 ed 0e      lcall 0xeed, 0x1c2
0x00B245:  9a c2 01 ed 0e      lcall 0xeed, 0x1c2
0x00B245:  9a c2 01 ed 0e      lcall 0xeed, 0x1c2
0x00B245:  9a c2 01 ed 0e      lcall 0xeed, 0x1c2
0x00B245:  9a c2 01 ed 0e      lcall 0xeed, 0x1c2
0x00B245:  9a c2 01 ed 0e      lcall 0xeed, 0x1c2
0x00B245:  9a c2 01 ed 0e      lcall 0xeed, 0x1c2
0x00B245:  9a c2 01 ed 0e      lcall 0xeed, 0x1c2
0x00B24A:  80 3e c1 38 00      cmp byte ptr [0x38c1], 0
0x00B24A:  80 3e c1 38 00      cmp byte ptr [0x38c1], 0
0x00B24A:  80 3e c1 38 00      cmp byte ptr [0x38c1], 0
0x00B24A:  80 3e c1 38 00      cmp byte ptr [0x38c1], 0
0x00B24A:  80 3e c1 38 00      cmp byte ptr [0x38c1], 0
0x00B24A:  80 3e c1 38 00      cmp byte ptr [0x38c1], 0
0x00B24A:  80 3e c1 38 00      cmp byte ptr [0x38c1], 0
0x00B24A:  80 3e c1 38 00      cmp byte ptr [0x38c1], 0
0x00B24A:  80 3e c1 38 00      cmp byte ptr [0x38c1], 0
0x00B24A:  80 3e c1 38 00      cmp byte ptr [0x38c1], 0
0x00B24F:  74 7b               je 0xb2cc
0x00B24F:  74 7b               je 0xb2cc
0x00B24F:  74 7b               je 0xb2cc
0x00B24F:  74 7b               je 0xb2cc
0x00B24F:  74 7b               je 0xb2cc
0x00B24F:  74 7b               je 0xb2cc
0x00B24F:  74 7b               je 0xb2cc
0x00B24F:  74 7b               je 0xb2cc
0x00B24F:  74 7b               je 0xb2cc
0x00B24F:  74 7b               je 0xb2cc
0x00B251:  a1 ac 38            mov ax, word ptr [0x38ac]
0x00B251:  a1 ac 38            mov ax, word ptr [0x38ac]
0x00B251:  a1 ac 38            mov ax, word ptr [0x38ac]
0x00B251:  a1 ac 38            mov ax, word ptr [0x38ac]
0x00B251:  a1 ac 38            mov ax, word ptr [0x38ac]
0x00B251:  a1 ac 38            mov ax, word ptr [0x38ac]
0x00B251:  a1 ac 38            mov ax, word ptr [0x38ac]
0x00B251:  a1 ac 38            mov ax, word ptr [0x38ac]
0x00B251:  a1 ac 38            mov ax, word ptr [0x38ac]
0x00B251:  a1 ac 38            mov ax, word ptr [0x38ac]
0x00B254:  3b 06 ae 38         cmp ax, word ptr [0x38ae]
0x00B254:  3b 06 ae 38         cmp ax, word ptr [0x38ae]
0x00B254:  3b 06 ae 38         cmp ax, word ptr [0x38ae]
0x00B254:  3b 06 ae 38         cmp ax, word ptr [0x38ae]
0x00B254:  3b 06 ae 38         cmp ax, word ptr [0x38ae]
0x00B254:  3b 06 ae 38         cmp ax, word ptr [0x38ae]
0x00B254:  3b 06 ae 38         cmp ax, word ptr [0x38ae]
0x00B254:  3b 06 ae 38         cmp ax, word ptr [0x38ae]
0x00B254:  3b 06 ae 38         cmp ax, word ptr [0x38ae]
0x00B254:  3b 06 ae 38         cmp ax, word ptr [0x38ae]
0x00B258:  7d 14               jge 0xb26e
0x00B258:  7d 14               jge 0xb26e
0x00B258:  7d 14               jge 0xb26e
0x00B258:  7d 14               jge 0xb26e
0x00B258:  7d 14               jge 0xb26e
0x00B258:  7d 14               jge 0xb26e
0x00B258:  7d 14               jge 0xb26e
0x00B258:  7d 14               jge 0xb26e
0x00B258:  7d 14               jge 0xb26e
0x00B258:  7d 14               jge 0xb26e
0x00B25A:  83 06 ac 38 03      add word ptr [0x38ac], 3
0x00B25A:  83 06 ac 38 03      add word ptr [0x38ac], 3
0x00B25A:  83 06 ac 38 03      add word ptr [0x38ac], 3
0x00B25A:  83 06 ac 38 03      add word ptr [0x38ac], 3
0x00B25A:  83 06 ac 38 03      add word ptr [0x38ac], 3
0x00B25A:  83 06 ac 38 03      add word ptr [0x38ac], 3
0x00B25A:  83 06 ac 38 03      add word ptr [0x38ac], 3
0x00B25A:  83 06 ac 38 03      add word ptr [0x38ac], 3
0x00B25A:  83 06 ac 38 03      add word ptr [0x38ac], 3
0x00B25A:  83 06 ac 38 03      add word ptr [0x38ac], 3
0x00B25F:  a1 ac 38            mov ax, word ptr [0x38ac]
0x00B25F:  a1 ac 38            mov ax, word ptr [0x38ac]
0x00B25F:  a1 ac 38            mov ax, word ptr [0x38ac]
0x00B25F:  a1 ac 38            mov ax, word ptr [0x38ac]
0x00B25F:  a1 ac 38            mov ax, word ptr [0x38ac]
0x00B25F:  a1 ac 38            mov ax, word ptr [0x38ac]
0x00B25F:  a1 ac 38            mov ax, word ptr [0x38ac]
0x00B25F:  a1 ac 38            mov ax, word ptr [0x38ac]
0x00B25F:  a1 ac 38            mov ax, word ptr [0x38ac]
0x00B25F:  a1 ac 38            mov ax, word ptr [0x38ac]
0x00B262:  3b 06 ae 38         cmp ax, word ptr [0x38ae]
0x00B262:  3b 06 ae 38         cmp ax, word ptr [0x38ae]
0x00B262:  3b 06 ae 38         cmp ax, word ptr [0x38ae]
0x00B262:  3b 06 ae 38         cmp ax, word ptr [0x38ae]
0x00B262:  3b 06 ae 38         cmp ax, word ptr [0x38ae]
0x00B262:  3b 06 ae 38         cmp ax, word ptr [0x38ae]
0x00B262:  3b 06 ae 38         cmp ax, word ptr [0x38ae]
0x00B262:  3b 06 ae 38         cmp ax, word ptr [0x38ae]
0x00B262:  3b 06 ae 38         cmp ax, word ptr [0x38ae]
0x00B262:  3b 06 ae 38         cmp ax, word ptr [0x38ae]
0x00B266:  7e 06               jle 0xb26e
0x00B266:  7e 06               jle 0xb26e
0x00B266:  7e 06               jle 0xb26e
0x00B266:  7e 06               jle 0xb26e
0x00B266:  7e 06               jle 0xb26e
0x00B266:  7e 06               jle 0xb26e
0x00B266:  7e 06               jle 0xb26e
0x00B266:  7e 06               jle 0xb26e
0x00B266:  7e 06               jle 0xb26e
0x00B266:  7e 06               jle 0xb26e
0x00B268:  a1 ae 38            mov ax, word ptr [0x38ae]
0x00B268:  a1 ae 38            mov ax, word ptr [0x38ae]
0x00B268:  a1 ae 38            mov ax, word ptr [0x38ae]
0x00B268:  a1 ae 38            mov ax, word ptr [0x38ae]
0x00B268:  a1 ae 38            mov ax, word ptr [0x38ae]
0x00B268:  a1 ae 38            mov ax, word ptr [0x38ae]
0x00B268:  a1 ae 38            mov ax, word ptr [0x38ae]
0x00B268:  a1 ae 38            mov ax, word ptr [0x38ae]
0x00B268:  a1 ae 38            mov ax, word ptr [0x38ae]
0x00B268:  a1 ae 38            mov ax, word ptr [0x38ae]
0x00B26B:  a3 ac 38            mov word ptr [0x38ac], ax
0x00B26B:  a3 ac 38            mov word ptr [0x38ac], ax
0x00B26B:  a3 ac 38            mov word ptr [0x38ac], ax
0x00B26B:  a3 ac 38            mov word ptr [0x38ac], ax
0x00B26B:  a3 ac 38            mov word ptr [0x38ac], ax
0x00B26B:  a3 ac 38            mov word ptr [0x38ac], ax
0x00B26B:  a3 ac 38            mov word ptr [0x38ac], ax
0x00B26B:  a3 ac 38            mov word ptr [0x38ac], ax
0x00B26B:  a3 ac 38            mov word ptr [0x38ac], ax
0x00B26B:  a3 ac 38            mov word ptr [0x38ac], ax
0x00B26E:  b8 14 00            mov ax, 0x14
0x00B26E:  b8 14 00            mov ax, 0x14
0x00B26E:  b8 14 00            mov ax, 0x14
0x00B26E:  b8 14 00            mov ax, 0x14
0x00B26E:  b8 14 00            mov ax, 0x14
0x00B26E:  b8 14 00            mov ax, 0x14
0x00B26E:  b8 14 00            mov ax, 0x14
0x00B26E:  b8 14 00            mov ax, 0x14
0x00B26E:  b8 14 00            mov ax, 0x14
0x00B26E:  b8 14 00            mov ax, 0x14
0x00B26E:  b8 14 00            mov ax, 0x14
0x00B271:  50                  push ax
0x00B271:  50                  push ax
0x00B271:  50                  push ax
0x00B271:  50                  push ax
0x00B271:  50                  push ax
0x00B271:  50                  push ax
0x00B271:  50                  push ax
0x00B271:  50                  push ax
0x00B271:  50                  push ax
0x00B271:  50                  push ax
0x00B271:  50                  push ax
0x00B272:  9a 4b 11 78 0f      lcall 0xf78, 0x114b
0x00B272:  9a 4b 11 78 0f      lcall 0xf78, 0x114b
0x00B272:  9a 4b 11 78 0f      lcall 0xf78, 0x114b
0x00B272:  9a 4b 11 78 0f      lcall 0xf78, 0x114b
0x00B272:  9a 4b 11 78 0f      lcall 0xf78, 0x114b
0x00B272:  9a 4b 11 78 0f      lcall 0xf78, 0x114b
0x00B272:  9a 4b 11 78 0f      lcall 0xf78, 0x114b
0x00B272:  9a 4b 11 78 0f      lcall 0xf78, 0x114b
0x00B272:  9a 4b 11 78 0f      lcall 0xf78, 0x114b
0x00B272:  9a 4b 11 78 0f      lcall 0xf78, 0x114b
0x00B272:  9a 4b 11 78 0f      lcall 0xf78, 0x114b
0x00B277:  09 c0               or ax, ax
0x00B277:  09 c0               or ax, ax
0x00B277:  09 c0               or ax, ax
0x00B277:  09 c0               or ax, ax
0x00B277:  09 c0               or ax, ax
0x00B277:  09 c0               or ax, ax
0x00B277:  09 c0               or ax, ax
0x00B277:  09 c0               or ax, ax
0x00B277:  09 c0               or ax, ax
0x00B277:  09 c0               or ax, ax
0x00B277:  09 c0               or ax, ax
0x00B279:  77 51               ja 0xb2cc
0x00B279:  77 51               ja 0xb2cc
0x00B279:  77 51               ja 0xb2cc
0x00B279:  77 51               ja 0xb2cc
0x00B279:  77 51               ja 0xb2cc
0x00B279:  77 51               ja 0xb2cc
0x00B279:  77 51               ja 0xb2cc
0x00B279:  77 51               ja 0xb2cc
0x00B279:  77 51               ja 0xb2cc
0x00B279:  77 51               ja 0xb2cc
0x00B279:  77 51               ja 0xb2cc
0x00B27B:  80 3e b0 38 00      cmp byte ptr [0x38b0], 0
0x00B27B:  80 3e b0 38 00      cmp byte ptr [0x38b0], 0
0x00B27B:  80 3e b0 38 00      cmp byte ptr [0x38b0], 0
0x00B27B:  80 3e b0 38 00      cmp byte ptr [0x38b0], 0
0x00B27B:  80 3e b0 38 00      cmp byte ptr [0x38b0], 0
0x00B27B:  80 3e b0 38 00      cmp byte ptr [0x38b0], 0
0x00B27B:  80 3e b0 38 00      cmp byte ptr [0x38b0], 0
0x00B27B:  80 3e b0 38 00      cmp byte ptr [0x38b0], 0
0x00B27B:  80 3e b0 38 00      cmp byte ptr [0x38b0], 0
0x00B27B:  80 3e b0 38 00      cmp byte ptr [0x38b0], 0
0x00B27B:  80 3e b0 38 00      cmp byte ptr [0x38b0], 0
0x00B280:  75 25               jne 0xb2a7
0x00B280:  75 25               jne 0xb2a7
0x00B280:  75 25               jne 0xb2a7
0x00B280:  75 25               jne 0xb2a7
0x00B280:  75 25               jne 0xb2a7
0x00B280:  75 25               jne 0xb2a7
0x00B280:  75 25               jne 0xb2a7
0x00B280:  75 25               jne 0xb2a7
0x00B280:  75 25               jne 0xb2a7
0x00B280:  75 25               jne 0xb2a7
0x00B280:  75 25               jne 0xb2a7
0x00B282:  80 3e b1 38 00      cmp byte ptr [0x38b1], 0
0x00B282:  80 3e b1 38 00      cmp byte ptr [0x38b1], 0
0x00B282:  80 3e b1 38 00      cmp byte ptr [0x38b1], 0
0x00B282:  80 3e b1 38 00      cmp byte ptr [0x38b1], 0
0x00B282:  80 3e b1 38 00      cmp byte ptr [0x38b1], 0
0x00B282:  80 3e b1 38 00      cmp byte ptr [0x38b1], 0
0x00B282:  80 3e b1 38 00      cmp byte ptr [0x38b1], 0
0x00B282:  80 3e b1 38 00      cmp byte ptr [0x38b1], 0
0x00B282:  80 3e b1 38 00      cmp byte ptr [0x38b1], 0
0x00B282:  80 3e b1 38 00      cmp byte ptr [0x38b1], 0
0x00B282:  80 3e b1 38 00      cmp byte ptr [0x38b1], 0
0x00B287:  74 1e               je 0xb2a7
0x00B287:  74 1e               je 0xb2a7
0x00B287:  74 1e               je 0xb2a7
0x00B287:  74 1e               je 0xb2a7
0x00B287:  74 1e               je 0xb2a7
0x00B287:  74 1e               je 0xb2a7
0x00B287:  74 1e               je 0xb2a7
0x00B287:  74 1e               je 0xb2a7
0x00B287:  74 1e               je 0xb2a7
0x00B287:  74 1e               je 0xb2a7
0x00B287:  74 1e               je 0xb2a7
0x00B289:  c6 06 b1 38 00      mov byte ptr [0x38b1], 0
0x00B289:  c6 06 b1 38 00      mov byte ptr [0x38b1], 0
0x00B289:  c6 06 b1 38 00      mov byte ptr [0x38b1], 0
0x00B289:  c6 06 b1 38 00      mov byte ptr [0x38b1], 0
0x00B289:  c6 06 b1 38 00      mov byte ptr [0x38b1], 0
0x00B289:  c6 06 b1 38 00      mov byte ptr [0x38b1], 0
0x00B289:  c6 06 b1 38 00      mov byte ptr [0x38b1], 0
0x00B289:  c6 06 b1 38 00      mov byte ptr [0x38b1], 0
0x00B289:  c6 06 b1 38 00      mov byte ptr [0x38b1], 0
0x00B289:  c6 06 b1 38 00      mov byte ptr [0x38b1], 0
0x00B289:  c6 06 b1 38 00      mov byte ptr [0x38b1], 0
0x00B28E:  bf 73 87            mov di, 0x8773
0x00B28E:  bf 73 87            mov di, 0x8773
0x00B28E:  bf 73 87            mov di, 0x8773
0x00B28E:  bf 73 87            mov di, 0x8773
0x00B28E:  bf 73 87            mov di, 0x8773
0x00B28E:  bf 73 87            mov di, 0x8773
0x00B28E:  bf 73 87            mov di, 0x8773
0x00B28E:  bf 73 87            mov di, 0x8773
0x00B28E:  bf 73 87            mov di, 0x8773
0x00B28E:  bf 73 87            mov di, 0x8773
0x00B28E:  bf 73 87            mov di, 0x8773
0x00B291:  0e                  push cs
0x00B291:  0e                  push cs
0x00B291:  0e                  push cs
0x00B291:  0e                  push cs
0x00B291:  0e                  push cs
0x00B291:  0e                  push cs
0x00B291:  0e                  push cs
0x00B291:  0e                  push cs
0x00B291:  0e                  push cs
0x00B291:  0e                  push cs
0x00B291:  0e                  push cs
0x00B292:  57                  push di
0x00B292:  57                  push di
0x00B292:  57                  push di
0x00B292:  57                  push di
0x00B292:  57                  push di
0x00B292:  57                  push di
0x00B292:  57                  push di
0x00B292:  57                  push di
0x00B292:  57                  push di
0x00B292:  57                  push di
0x00B292:  57                  push di
0x00B293:  31 c0               xor ax, ax
0x00B293:  31 c0               xor ax, ax
0x00B293:  31 c0               xor ax, ax
0x00B293:  31 c0               xor ax, ax
0x00B293:  31 c0               xor ax, ax
0x00B293:  31 c0               xor ax, ax
0x00B293:  31 c0               xor ax, ax
0x00B293:  31 c0               xor ax, ax
0x00B293:  31 c0               xor ax, ax
0x00B293:  31 c0               xor ax, ax
0x00B293:  31 c0               xor ax, ax
0x00B295:  50                  push ax
0x00B295:  50                  push ax
0x00B295:  50                  push ax
0x00B295:  50                  push ax
0x00B295:  50                  push ax
0x00B295:  50                  push ax
0x00B295:  50                  push ax
0x00B295:  50                  push ax
0x00B295:  50                  push ax
0x00B295:  50                  push ax
0x00B295:  50                  push ax
0x00B296:  31 c0               xor ax, ax
0x00B296:  31 c0               xor ax, ax
0x00B296:  31 c0               xor ax, ax
0x00B296:  31 c0               xor ax, ax
0x00B296:  31 c0               xor ax, ax
0x00B296:  31 c0               xor ax, ax
0x00B296:  31 c0               xor ax, ax
0x00B296:  31 c0               xor ax, ax
0x00B296:  31 c0               xor ax, ax
0x00B296:  31 c0               xor ax, ax
0x00B296:  31 c0               xor ax, ax
0x00B298:  50                  push ax
0x00B298:  50                  push ax
0x00B298:  50                  push ax
0x00B298:  50                  push ax
0x00B298:  50                  push ax
0x00B298:  50                  push ax
0x00B298:  50                  push ax
0x00B298:  50                  push ax
0x00B298:  50                  push ax
0x00B298:  50                  push ax
0x00B298:  50                  push ax
0x00B299:  31 c0               xor ax, ax
0x00B299:  31 c0               xor ax, ax
0x00B299:  31 c0               xor ax, ax
0x00B299:  31 c0               xor ax, ax
0x00B299:  31 c0               xor ax, ax
0x00B299:  31 c0               xor ax, ax
0x00B299:  31 c0               xor ax, ax
0x00B299:  31 c0               xor ax, ax
0x00B299:  31 c0               xor ax, ax
0x00B299:  31 c0               xor ax, ax
0x00B299:  31 c0               xor ax, ax
0x00B29B:  50                  push ax
0x00B29B:  50                  push ax
0x00B29B:  50                  push ax
0x00B29B:  50                  push ax
0x00B29B:  50                  push ax
0x00B29B:  50                  push ax
0x00B29B:  50                  push ax
0x00B29B:  50                  push ax
0x00B29B:  50                  push ax
0x00B29B:  50                  push ax
0x00B29B:  50                  push ax
0x00B29C:  31 c0               xor ax, ax
0x00B29C:  31 c0               xor ax, ax
0x00B29C:  31 c0               xor ax, ax
0x00B29C:  31 c0               xor ax, ax
0x00B29C:  31 c0               xor ax, ax
0x00B29C:  31 c0               xor ax, ax
0x00B29C:  31 c0               xor ax, ax
0x00B29C:  31 c0               xor ax, ax
0x00B29C:  31 c0               xor ax, ax
0x00B29C:  31 c0               xor ax, ax
0x00B29C:  31 c0               xor ax, ax
0x00B29E:  50                  push ax
0x00B29E:  50                  push ax
0x00B29E:  50                  push ax
0x00B29E:  50                  push ax
0x00B29E:  50                  push ax
0x00B29E:  50                  push ax
0x00B29E:  50                  push ax
0x00B29E:  50                  push ax
0x00B29E:  50                  push ax
0x00B29E:  50                  push ax
0x00B29E:  50                  push ax
0x00B29F:  31 c0               xor ax, ax
0x00B29F:  31 c0               xor ax, ax
0x00B29F:  31 c0               xor ax, ax
0x00B29F:  31 c0               xor ax, ax
0x00B29F:  31 c0               xor ax, ax
0x00B29F:  31 c0               xor ax, ax
0x00B29F:  31 c0               xor ax, ax
0x00B29F:  31 c0               xor ax, ax
0x00B29F:  31 c0               xor ax, ax
0x00B29F:  31 c0               xor ax, ax
0x00B29F:  31 c0               xor ax, ax
0x00B2A1:  50                  push ax
0x00B2A1:  50                  push ax
0x00B2A1:  50                  push ax
0x00B2A1:  50                  push ax
0x00B2A1:  50                  push ax
0x00B2A1:  50                  push ax
0x00B2A1:  50                  push ax
0x00B2A1:  50                  push ax
0x00B2A1:  50                  push ax
0x00B2A1:  50                  push ax
0x00B2A1:  50                  push ax
0x00B2A2:  9a c2 01 ed 0e      lcall 0xeed, 0x1c2
0x00B2A2:  9a c2 01 ed 0e      lcall 0xeed, 0x1c2
0x00B2A2:  9a c2 01 ed 0e      lcall 0xeed, 0x1c2
0x00B2A2:  9a c2 01 ed 0e      lcall 0xeed, 0x1c2
0x00B2A2:  9a c2 01 ed 0e      lcall 0xeed, 0x1c2
0x00B2A2:  9a c2 01 ed 0e      lcall 0xeed, 0x1c2
0x00B2A2:  9a c2 01 ed 0e      lcall 0xeed, 0x1c2
0x00B2A2:  9a c2 01 ed 0e      lcall 0xeed, 0x1c2
0x00B2A2:  9a c2 01 ed 0e      lcall 0xeed, 0x1c2
0x00B2A2:  9a c2 01 ed 0e      lcall 0xeed, 0x1c2
0x00B2A2:  9a c2 01 ed 0e      lcall 0xeed, 0x1c2
0x00B2A7:  80 3e b0 38 00      cmp byte ptr [0x38b0], 0
0x00B2A7:  80 3e b0 38 00      cmp byte ptr [0x38b0], 0
0x00B2A7:  80 3e b0 38 00      cmp byte ptr [0x38b0], 0
0x00B2A7:  80 3e b0 38 00      cmp byte ptr [0x38b0], 0
0x00B2A7:  80 3e b0 38 00      cmp byte ptr [0x38b0], 0
0x00B2A7:  80 3e b0 38 00      cmp byte ptr [0x38b0], 0
0x00B2A7:  80 3e b0 38 00      cmp byte ptr [0x38b0], 0
0x00B2A7:  80 3e b0 38 00      cmp byte ptr [0x38b0], 0
0x00B2A7:  80 3e b0 38 00      cmp byte ptr [0x38b0], 0
0x00B2A7:  80 3e b0 38 00      cmp byte ptr [0x38b0], 0
0x00B2A7:  80 3e b0 38 00      cmp byte ptr [0x38b0], 0
0x00B2A7:  80 3e b0 38 00      cmp byte ptr [0x38b0], 0
0x00B2AC:  74 1e               je 0xb2cc
0x00B2AC:  74 1e               je 0xb2cc
0x00B2AC:  74 1e               je 0xb2cc
0x00B2AC:  74 1e               je 0xb2cc
0x00B2AC:  74 1e               je 0xb2cc
0x00B2AC:  74 1e               je 0xb2cc
0x00B2AC:  74 1e               je 0xb2cc
0x00B2AC:  74 1e               je 0xb2cc
0x00B2AC:  74 1e               je 0xb2cc
0x00B2AC:  74 1e               je 0xb2cc
0x00B2AC:  74 1e               je 0xb2cc
0x00B2AC:  74 1e               je 0xb2cc
0x00B2AE:  c6 06 b0 38 00      mov byte ptr [0x38b0], 0
0x00B2AE:  c6 06 b0 38 00      mov byte ptr [0x38b0], 0
0x00B2AE:  c6 06 b0 38 00      mov byte ptr [0x38b0], 0
0x00B2AE:  c6 06 b0 38 00      mov byte ptr [0x38b0], 0
0x00B2AE:  c6 06 b0 38 00      mov byte ptr [0x38b0], 0
0x00B2AE:  c6 06 b0 38 00      mov byte ptr [0x38b0], 0
0x00B2AE:  c6 06 b0 38 00      mov byte ptr [0x38b0], 0
0x00B2AE:  c6 06 b0 38 00      mov byte ptr [0x38b0], 0
0x00B2AE:  c6 06 b0 38 00      mov byte ptr [0x38b0], 0
0x00B2AE:  c6 06 b0 38 00      mov byte ptr [0x38b0], 0
0x00B2AE:  c6 06 b0 38 00      mov byte ptr [0x38b0], 0
0x00B2AE:  c6 06 b0 38 00      mov byte ptr [0x38b0], 0
0x00B2B3:  bf 9b 87            mov di, 0x879b
0x00B2B3:  bf 9b 87            mov di, 0x879b
0x00B2B3:  bf 9b 87            mov di, 0x879b
0x00B2B3:  bf 9b 87            mov di, 0x879b
0x00B2B3:  bf 9b 87            mov di, 0x879b
0x00B2B3:  bf 9b 87            mov di, 0x879b
0x00B2B3:  bf 9b 87            mov di, 0x879b
0x00B2B3:  bf 9b 87            mov di, 0x879b
0x00B2B3:  bf 9b 87            mov di, 0x879b
0x00B2B3:  bf 9b 87            mov di, 0x879b
0x00B2B3:  bf 9b 87            mov di, 0x879b
0x00B2B3:  bf 9b 87            mov di, 0x879b
0x00B2B6:  0e                  push cs
0x00B2B6:  0e                  push cs
0x00B2B6:  0e                  push cs
0x00B2B6:  0e                  push cs
0x00B2B6:  0e                  push cs
0x00B2B6:  0e                  push cs
0x00B2B6:  0e                  push cs
0x00B2B6:  0e                  push cs
0x00B2B6:  0e                  push cs
0x00B2B6:  0e                  push cs
0x00B2B6:  0e                  push cs
0x00B2B6:  0e                  push cs
0x00B2B7:  57                  push di
0x00B2B7:  57                  push di
0x00B2B7:  57                  push di
0x00B2B7:  57                  push di
0x00B2B7:  57                  push di
0x00B2B7:  57                  push di
0x00B2B7:  57                  push di
0x00B2B7:  57                  push di
0x00B2B7:  57                  push di
0x00B2B7:  57                  push di
0x00B2B7:  57                  push di
0x00B2B7:  57                  push di
0x00B2B8:  31 c0               xor ax, ax
0x00B2B8:  31 c0               xor ax, ax
0x00B2B8:  31 c0               xor ax, ax
0x00B2B8:  31 c0               xor ax, ax
0x00B2B8:  31 c0               xor ax, ax
0x00B2B8:  31 c0               xor ax, ax
0x00B2B8:  31 c0               xor ax, ax
0x00B2B8:  31 c0               xor ax, ax
0x00B2B8:  31 c0               xor ax, ax
0x00B2B8:  31 c0               xor ax, ax
0x00B2B8:  31 c0               xor ax, ax
0x00B2B8:  31 c0               xor ax, ax
0x00B2BA:  50                  push ax
0x00B2BA:  50                  push ax
0x00B2BA:  50                  push ax
0x00B2BA:  50                  push ax
0x00B2BA:  50                  push ax
0x00B2BA:  50                  push ax
0x00B2BA:  50                  push ax
0x00B2BA:  50                  push ax
0x00B2BA:  50                  push ax
0x00B2BA:  50                  push ax
0x00B2BA:  50                  push ax
0x00B2BA:  50                  push ax
0x00B2BB:  31 c0               xor ax, ax
0x00B2BB:  31 c0               xor ax, ax
0x00B2BB:  31 c0               xor ax, ax
0x00B2BB:  31 c0               xor ax, ax
0x00B2BB:  31 c0               xor ax, ax
0x00B2BB:  31 c0               xor ax, ax
0x00B2BB:  31 c0               xor ax, ax
0x00B2BB:  31 c0               xor ax, ax
0x00B2BB:  31 c0               xor ax, ax
0x00B2BB:  31 c0               xor ax, ax
0x00B2BB:  31 c0               xor ax, ax
0x00B2BB:  31 c0               xor ax, ax
0x00B2BD:  50                  push ax
0x00B2BD:  50                  push ax
0x00B2BD:  50                  push ax
0x00B2BD:  50                  push ax
0x00B2BD:  50                  push ax
0x00B2BD:  50                  push ax
0x00B2BD:  50                  push ax
0x00B2BD:  50                  push ax
0x00B2BD:  50                  push ax
0x00B2BD:  50                  push ax
0x00B2BD:  50                  push ax
0x00B2BD:  50                  push ax
0x00B2BE:  31 c0               xor ax, ax
0x00B2BE:  31 c0               xor ax, ax
0x00B2BE:  31 c0               xor ax, ax
0x00B2BE:  31 c0               xor ax, ax
0x00B2BE:  31 c0               xor ax, ax
0x00B2BE:  31 c0               xor ax, ax
0x00B2BE:  31 c0               xor ax, ax
0x00B2BE:  31 c0               xor ax, ax
0x00B2BE:  31 c0               xor ax, ax
0x00B2BE:  31 c0               xor ax, ax
0x00B2BE:  31 c0               xor ax, ax
0x00B2BE:  31 c0               xor ax, ax
0x00B2C0:  50                  push ax
0x00B2C0:  50                  push ax
0x00B2C0:  50                  push ax
0x00B2C0:  50                  push ax
0x00B2C0:  50                  push ax
0x00B2C0:  50                  push ax
0x00B2C0:  50                  push ax
0x00B2C0:  50                  push ax
0x00B2C0:  50                  push ax
0x00B2C0:  50                  push ax
0x00B2C0:  50                  push ax
0x00B2C0:  50                  push ax
0x00B2C1:  31 c0               xor ax, ax
0x00B2C1:  31 c0               xor ax, ax
0x00B2C1:  31 c0               xor ax, ax
0x00B2C1:  31 c0               xor ax, ax
0x00B2C1:  31 c0               xor ax, ax
0x00B2C1:  31 c0               xor ax, ax
0x00B2C1:  31 c0               xor ax, ax
0x00B2C1:  31 c0               xor ax, ax
0x00B2C1:  31 c0               xor ax, ax
0x00B2C1:  31 c0               xor ax, ax
0x00B2C1:  31 c0               xor ax, ax
0x00B2C1:  31 c0               xor ax, ax
0x00B2C3:  50                  push ax
0x00B2C3:  50                  push ax
0x00B2C3:  50                  push ax
0x00B2C3:  50                  push ax
0x00B2C3:  50                  push ax
0x00B2C3:  50                  push ax
0x00B2C3:  50                  push ax
0x00B2C3:  50                  push ax
0x00B2C3:  50                  push ax
0x00B2C3:  50                  push ax
0x00B2C3:  50                  push ax
0x00B2C3:  50                  push ax
0x00B2C4:  31 c0               xor ax, ax
0x00B2C4:  31 c0               xor ax, ax
0x00B2C4:  31 c0               xor ax, ax
0x00B2C4:  31 c0               xor ax, ax
0x00B2C4:  31 c0               xor ax, ax
0x00B2C4:  31 c0               xor ax, ax
0x00B2C4:  31 c0               xor ax, ax
0x00B2C4:  31 c0               xor ax, ax
0x00B2C4:  31 c0               xor ax, ax
0x00B2C4:  31 c0               xor ax, ax
0x00B2C4:  31 c0               xor ax, ax
0x00B2C4:  31 c0               xor ax, ax
0x00B2C6:  50                  push ax
0x00B2C6:  50                  push ax
0x00B2C6:  50                  push ax
0x00B2C6:  50                  push ax
0x00B2C6:  50                  push ax
0x00B2C6:  50                  push ax
0x00B2C6:  50                  push ax
0x00B2C6:  50                  push ax
0x00B2C6:  50                  push ax
0x00B2C6:  50                  push ax
0x00B2C6:  50                  push ax
0x00B2C6:  50                  push ax
0x00B2C7:  9a c2 01 ed 0e      lcall 0xeed, 0x1c2
0x00B2C7:  9a c2 01 ed 0e      lcall 0xeed, 0x1c2
0x00B2C7:  9a c2 01 ed 0e      lcall 0xeed, 0x1c2
0x00B2C7:  9a c2 01 ed 0e      lcall 0xeed, 0x1c2
0x00B2C7:  9a c2 01 ed 0e      lcall 0xeed, 0x1c2
0x00B2C7:  9a c2 01 ed 0e      lcall 0xeed, 0x1c2
0x00B2C7:  9a c2 01 ed 0e      lcall 0xeed, 0x1c2
0x00B2C7:  9a c2 01 ed 0e      lcall 0xeed, 0x1c2
0x00B2C7:  9a c2 01 ed 0e      lcall 0xeed, 0x1c2
0x00B2C7:  9a c2 01 ed 0e      lcall 0xeed, 0x1c2
0x00B2C7:  9a c2 01 ed 0e      lcall 0xeed, 0x1c2
0x00B2C7:  9a c2 01 ed 0e      lcall 0xeed, 0x1c2
0x00B2CC:  a1 9c 38            mov ax, word ptr [0x389c]
0x00B2CC:  a1 9c 38            mov ax, word ptr [0x389c]
0x00B2CC:  a1 9c 38            mov ax, word ptr [0x389c]
0x00B2CC:  a1 9c 38            mov ax, word ptr [0x389c]
0x00B2CC:  a1 9c 38            mov ax, word ptr [0x389c]
0x00B2CC:  a1 9c 38            mov ax, word ptr [0x389c]
0x00B2CC:  a1 9c 38            mov ax, word ptr [0x389c]
0x00B2CC:  a1 9c 38            mov ax, word ptr [0x389c]
0x00B2CC:  a1 9c 38            mov ax, word ptr [0x389c]
0x00B2CC:  a1 9c 38            mov ax, word ptr [0x389c]
0x00B2CC:  a1 9c 38            mov ax, word ptr [0x389c]
0x00B2CC:  a1 9c 38            mov ax, word ptr [0x389c]
0x00B2CC:  a1 9c 38            mov ax, word ptr [0x389c]
0x00B2CF:  3d 04 00            cmp ax, 4
0x00B2CF:  3d 04 00            cmp ax, 4
0x00B2CF:  3d 04 00            cmp ax, 4
0x00B2CF:  3d 04 00            cmp ax, 4
0x00B2CF:  3d 04 00            cmp ax, 4
0x00B2CF:  3d 04 00            cmp ax, 4
0x00B2CF:  3d 04 00            cmp ax, 4
0x00B2CF:  3d 04 00            cmp ax, 4
0x00B2CF:  3d 04 00            cmp ax, 4
0x00B2CF:  3d 04 00            cmp ax, 4
0x00B2CF:  3d 04 00            cmp ax, 4
0x00B2CF:  3d 04 00            cmp ax, 4
0x00B2CF:  3d 04 00            cmp ax, 4
0x00B2D2:  75 0f               jne 0xb2e3
0x00B2D2:  75 0f               jne 0xb2e3
0x00B2D2:  75 0f               jne 0xb2e3
0x00B2D2:  75 0f               jne 0xb2e3
0x00B2D2:  75 0f               jne 0xb2e3
0x00B2D2:  75 0f               jne 0xb2e3
0x00B2D2:  75 0f               jne 0xb2e3
0x00B2D2:  75 0f               jne 0xb2e3
0x00B2D2:  75 0f               jne 0xb2e3
0x00B2D2:  75 0f               jne 0xb2e3
0x00B2D2:  75 0f               jne 0xb2e3
0x00B2D2:  75 0f               jne 0xb2e3
0x00B2D2:  75 0f               jne 0xb2e3
0x00B2D4:  a1 ac 38            mov ax, word ptr [0x38ac]
0x00B2D4:  a1 ac 38            mov ax, word ptr [0x38ac]
0x00B2D4:  a1 ac 38            mov ax, word ptr [0x38ac]
0x00B2D4:  a1 ac 38            mov ax, word ptr [0x38ac]
0x00B2D4:  a1 ac 38            mov ax, word ptr [0x38ac]
0x00B2D4:  a1 ac 38            mov ax, word ptr [0x38ac]
0x00B2D4:  a1 ac 38            mov ax, word ptr [0x38ac]
0x00B2D4:  a1 ac 38            mov ax, word ptr [0x38ac]
0x00B2D4:  a1 ac 38            mov ax, word ptr [0x38ac]
0x00B2D4:  a1 ac 38            mov ax, word ptr [0x38ac]
0x00B2D4:  a1 ac 38            mov ax, word ptr [0x38ac]
0x00B2D4:  a1 ac 38            mov ax, word ptr [0x38ac]
0x00B2D4:  a1 ac 38            mov ax, word ptr [0x38ac]
0x00B2D7:  3b 06 ae 38         cmp ax, word ptr [0x38ae]
0x00B2D7:  3b 06 ae 38         cmp ax, word ptr [0x38ae]
0x00B2D7:  3b 06 ae 38         cmp ax, word ptr [0x38ae]
0x00B2D7:  3b 06 ae 38         cmp ax, word ptr [0x38ae]
0x00B2D7:  3b 06 ae 38         cmp ax, word ptr [0x38ae]
0x00B2D7:  3b 06 ae 38         cmp ax, word ptr [0x38ae]
0x00B2D7:  3b 06 ae 38         cmp ax, word ptr [0x38ae]
0x00B2D7:  3b 06 ae 38         cmp ax, word ptr [0x38ae]
0x00B2D7:  3b 06 ae 38         cmp ax, word ptr [0x38ae]
0x00B2D7:  3b 06 ae 38         cmp ax, word ptr [0x38ae]
0x00B2D7:  3b 06 ae 38         cmp ax, word ptr [0x38ae]
0x00B2D7:  3b 06 ae 38         cmp ax, word ptr [0x38ae]
0x00B2D7:  3b 06 ae 38         cmp ax, word ptr [0x38ae]
0x00B2DB:  7d 04               jge 0xb2e1
0x00B2DB:  7d 04               jge 0xb2e1
0x00B2DB:  7d 04               jge 0xb2e1
0x00B2DB:  7d 04               jge 0xb2e1
0x00B2DB:  7d 04               jge 0xb2e1
0x00B2DB:  7d 04               jge 0xb2e1
0x00B2DB:  7d 04               jge 0xb2e1
0x00B2DB:  7d 04               jge 0xb2e1
0x00B2DB:  7d 04               jge 0xb2e1
0x00B2DB:  7d 04               jge 0xb2e1
0x00B2DB:  7d 04               jge 0xb2e1
0x00B2DB:  7d 04               jge 0xb2e1
0x00B2DB:  7d 04               jge 0xb2e1
0x00B2DD:  ff 06 ac 38         inc word ptr [0x38ac]
0x00B2DD:  ff 06 ac 38         inc word ptr [0x38ac]
0x00B2DD:  ff 06 ac 38         inc word ptr [0x38ac]
0x00B2DD:  ff 06 ac 38         inc word ptr [0x38ac]
0x00B2DD:  ff 06 ac 38         inc word ptr [0x38ac]
0x00B2DD:  ff 06 ac 38         inc word ptr [0x38ac]
0x00B2DD:  ff 06 ac 38         inc word ptr [0x38ac]
0x00B2DD:  ff 06 ac 38         inc word ptr [0x38ac]
0x00B2DD:  ff 06 ac 38         inc word ptr [0x38ac]
0x00B2DD:  ff 06 ac 38         inc word ptr [0x38ac]
0x00B2DD:  ff 06 ac 38         inc word ptr [0x38ac]
0x00B2DD:  ff 06 ac 38         inc word ptr [0x38ac]
0x00B2DD:  ff 06 ac 38         inc word ptr [0x38ac]
0x00B2E1:  eb 6a               jmp 0xb34d
0x00B2E1:  eb 6a               jmp 0xb34d
0x00B2E1:  eb 6a               jmp 0xb34d
0x00B2E1:  eb 6a               jmp 0xb34d
0x00B2E1:  eb 6a               jmp 0xb34d
0x00B2E1:  eb 6a               jmp 0xb34d
0x00B2E1:  eb 6a               jmp 0xb34d
0x00B2E1:  eb 6a               jmp 0xb34d
0x00B2E1:  eb 6a               jmp 0xb34d
0x00B2E1:  eb 6a               jmp 0xb34d
0x00B2E1:  eb 6a               jmp 0xb34d
0x00B2E1:  eb 6a               jmp 0xb34d
0x00B2E1:  eb 6a               jmp 0xb34d
0x00B2E1:  eb 6a               jmp 0xb34d
0x00B2E3:  3d 05 00            cmp ax, 5
0x00B2E6:  75 02               jne 0xb2ea
0x00B2E8:  eb 63               jmp 0xb34d
0x00B2EA:  3d 06 00            cmp ax, 6
0x00B2ED:  75 5e               jne 0xb34d
0x00B2EF:  a0 92 36            mov al, byte ptr [0x3692]
0x00B2F2:  30 e4               xor ah, ah
0x00B2F4:  ba 14 00            mov dx, 0x14
0x00B2F7:  f7 e2               mul dx
0x00B2F9:  50                  push ax
0x00B2FA:  9a 4b 11 78 0f      lcall 0xf78, 0x114b
0x00B2FF:  31 d2               xor dx, dx
0x00B301:  8b c8               mov cx, ax
0x00B303:  8b da               mov bx, dx
0x00B305:  a1 a4 38            mov ax, word ptr [0x38a4]
0x00B308:  99                  cdq 
0x00B309:  3b d3               cmp dx, bx
0x00B30B:  7f 06               jg 0xb313
0x00B30D:  7c 3c               jl 0xb34b
0x00B30F:  3b c1               cmp ax, cx
0x00B311:  72 38               jb 0xb34b
0x00B313:  a0 92 36            mov al, byte ptr [0x3692]
0x00B313:  a0 92 36            mov al, byte ptr [0x3692]
0x00B316:  30 e4               xor ah, ah
0x00B316:  30 e4               xor ah, ah
0x00B318:  8b f0               mov si, ax
0x00B318:  8b f0               mov si, ax
0x00B31A:  d1 e0               shl ax, 1
0x00B31A:  d1 e0               shl ax, 1
0x00B31C:  d1 e0               shl ax, 1
0x00B31C:  d1 e0               shl ax, 1
0x00B31E:  01 f0               add ax, si
0x00B31E:  01 f0               add ax, si
0x00B320:  50                  push ax
0x00B320:  50                  push ax
0x00B321:  9a 4b 11 78 0f      lcall 0xf78, 0x114b
0x00B321:  9a 4b 11 78 0f      lcall 0xf78, 0x114b
0x00B326:  40                  inc ax
0x00B326:  40                  inc ax
0x00B327:  a3 74 3b            mov word ptr [0x3b74], ax
0x00B327:  a3 74 3b            mov word ptr [0x3b74], ax
0x00B32A:  a1 74 3b            mov ax, word ptr [0x3b74]
0x00B32A:  a1 74 3b            mov ax, word ptr [0x3b74]
0x00B32D:  01 06 c7 38         add word ptr [0x38c7], ax
0x00B32D:  01 06 c7 38         add word ptr [0x38c7], ax
0x00B331:  bf c6 87            mov di, 0x87c6
0x00B331:  bf c6 87            mov di, 0x87c6
0x00B334:  0e                  push cs
0x00B334:  0e                  push cs
0x00B335:  57                  push di
0x00B335:  57                  push di
0x00B336:  ff 36 74 3b         push word ptr [0x3b74]
0x00B336:  ff 36 74 3b         push word ptr [0x3b74]
0x00B33A:  31 c0               xor ax, ax
0x00B33A:  31 c0               xor ax, ax
0x00B33C:  50                  push ax
0x00B33C:  50                  push ax
0x00B33D:  31 c0               xor ax, ax
0x00B33D:  31 c0               xor ax, ax
0x00B33F:  50                  push ax
0x00B33F:  50                  push ax
0x00B340:  31 c0               xor ax, ax
0x00B340:  31 c0               xor ax, ax
0x00B342:  50                  push ax
0x00B342:  50                  push ax
0x00B343:  31 c0               xor ax, ax
0x00B343:  31 c0               xor ax, ax
0x00B345:  50                  push ax
0x00B345:  50                  push ax
0x00B346:  9a c2 01 ed 0e      lcall 0xeed, 0x1c2
0x00B346:  9a c2 01 ed 0e      lcall 0xeed, 0x1c2
0x00B34B:  eb 00               jmp 0xb34d
0x00B34B:  eb 00               jmp 0xb34d
0x00B34B:  eb 00               jmp 0xb34d
0x00B34D:  b8 05 00            mov ax, 5
0x00B350:  f7 e8               imul ax
0x00B352:  50                  push ax
0x00B353:  9a 4b 11 78 0f      lcall 0xf78, 0x114b
0x00B358:  40                  inc ax
0x00B359:  a2 71 39            mov byte ptr [0x3971], al
0x00B35C:  80 3e 71 39 0a      cmp byte ptr [0x3971], 0xa
0x00B361:  72 05               jb 0xb368
0x00B363:  c6 06 70 39 04      mov byte ptr [0x3970], 4
0x00B368:  80 3e 71 39 09      cmp byte ptr [0x3971], 9
0x00B368:  80 3e 71 39 09      cmp byte ptr [0x3971], 9
0x00B36D:  77 0c               ja 0xb37b
0x00B36D:  77 0c               ja 0xb37b
0x00B36F:  80 3e 71 39 05      cmp byte ptr [0x3971], 5
0x00B36F:  80 3e 71 39 05      cmp byte ptr [0x3971], 5
0x00B374:  72 05               jb 0xb37b
0x00B374:  72 05               jb 0xb37b
0x00B376:  c6 06 70 39 03      mov byte ptr [0x3970], 3
0x00B376:  c6 06 70 39 03      mov byte ptr [0x3970], 3
0x00B37B:  80 3e 71 39 04      cmp byte ptr [0x3971], 4
0x00B37B:  80 3e 71 39 04      cmp byte ptr [0x3971], 4
0x00B37B:  80 3e 71 39 04      cmp byte ptr [0x3971], 4
0x00B380:  77 0c               ja 0xb38e
0x00B380:  77 0c               ja 0xb38e
0x00B380:  77 0c               ja 0xb38e
0x00B382:  80 3e 71 39 02      cmp byte ptr [0x3971], 2
0x00B382:  80 3e 71 39 02      cmp byte ptr [0x3971], 2
0x00B382:  80 3e 71 39 02      cmp byte ptr [0x3971], 2
0x00B387:  72 05               jb 0xb38e
0x00B387:  72 05               jb 0xb38e
0x00B387:  72 05               jb 0xb38e
0x00B389:  c6 06 70 39 02      mov byte ptr [0x3970], 2
0x00B389:  c6 06 70 39 02      mov byte ptr [0x3970], 2
0x00B389:  c6 06 70 39 02      mov byte ptr [0x3970], 2
0x00B38E:  80 3e 71 39 01      cmp byte ptr [0x3971], 1
0x00B38E:  80 3e 71 39 01      cmp byte ptr [0x3971], 1
0x00B38E:  80 3e 71 39 01      cmp byte ptr [0x3971], 1
0x00B38E:  80 3e 71 39 01      cmp byte ptr [0x3971], 1
0x00B393:  75 05               jne 0xb39a
0x00B393:  75 05               jne 0xb39a
0x00B393:  75 05               jne 0xb39a
0x00B393:  75 05               jne 0xb39a
0x00B395:  c6 06 70 39 01      mov byte ptr [0x3970], 1
0x00B395:  c6 06 70 39 01      mov byte ptr [0x3970], 1
0x00B395:  c6 06 70 39 01      mov byte ptr [0x3970], 1
0x00B395:  c6 06 70 39 01      mov byte ptr [0x3970], 1
0x00B39A:  b8 c8 00            mov ax, 0xc8
0x00B39A:  b8 c8 00            mov ax, 0xc8
0x00B39A:  b8 c8 00            mov ax, 0xc8
0x00B39A:  b8 c8 00            mov ax, 0xc8
0x00B39A:  b8 c8 00            mov ax, 0xc8
0x00B39D:  50                  push ax
0x00B39D:  50                  push ax
0x00B39D:  50                  push ax
0x00B39D:  50                  push ax
0x00B39D:  50                  push ax
0x00B39E:  9a 4b 11 78 0f      lcall 0xf78, 0x114b
0x00B39E:  9a 4b 11 78 0f      lcall 0xf78, 0x114b
0x00B39E:  9a 4b 11 78 0f      lcall 0xf78, 0x114b
0x00B39E:  9a 4b 11 78 0f      lcall 0xf78, 0x114b
0x00B39E:  9a 4b 11 78 0f      lcall 0xf78, 0x114b
0x00B3A3:  09 c0               or ax, ax
0x00B3A3:  09 c0               or ax, ax
0x00B3A3:  09 c0               or ax, ax
0x00B3A3:  09 c0               or ax, ax
0x00B3A3:  09 c0               or ax, ax
0x00B3A5:  75 03               jne 0xb3aa
0x00B3A5:  75 03               jne 0xb3aa
0x00B3A5:  75 03               jne 0xb3aa
0x00B3A5:  75 03               jne 0xb3aa
0x00B3A5:  75 03               jne 0xb3aa
0x00B3A7:  e8 bd c8            call 0x7c67
0x00B3A7:  e8 bd c8            call 0x7c67
0x00B3A7:  e8 bd c8            call 0x7c67
0x00B3A7:  e8 bd c8            call 0x7c67
0x00B3A7:  e8 bd c8            call 0x7c67
0x00B3AA:  b8 64 00            mov ax, 0x64
0x00B3AA:  b8 64 00            mov ax, 0x64
0x00B3AA:  b8 64 00            mov ax, 0x64
0x00B3AA:  b8 64 00            mov ax, 0x64
0x00B3AA:  b8 64 00            mov ax, 0x64
0x00B3AA:  b8 64 00            mov ax, 0x64
0x00B3AD:  50                  push ax
0x00B3AD:  50                  push ax
0x00B3AD:  50                  push ax
0x00B3AD:  50                  push ax
0x00B3AD:  50                  push ax
0x00B3AD:  50                  push ax
0x00B3AE:  9a 4b 11 78 0f      lcall 0xf78, 0x114b
0x00B3AE:  9a 4b 11 78 0f      lcall 0xf78, 0x114b
0x00B3AE:  9a 4b 11 78 0f      lcall 0xf78, 0x114b
0x00B3AE:  9a 4b 11 78 0f      lcall 0xf78, 0x114b
0x00B3AE:  9a 4b 11 78 0f      lcall 0xf78, 0x114b
0x00B3AE:  9a 4b 11 78 0f      lcall 0xf78, 0x114b
0x00B3B3:  09 c0               or ax, ax
0x00B3B3:  09 c0               or ax, ax
0x00B3B3:  09 c0               or ax, ax
0x00B3B3:  09 c0               or ax, ax
0x00B3B3:  09 c0               or ax, ax
0x00B3B3:  09 c0               or ax, ax
0x00B3B5:  75 03               jne 0xb3ba
0x00B3B5:  75 03               jne 0xb3ba
0x00B3B5:  75 03               jne 0xb3ba
0x00B3B5:  75 03               jne 0xb3ba
0x00B3B5:  75 03               jne 0xb3ba
0x00B3B5:  75 03               jne 0xb3ba
0x00B3B7:  e8 7e c1            call 0x7538
0x00B3B7:  e8 7e c1            call 0x7538
0x00B3B7:  e8 7e c1            call 0x7538
0x00B3B7:  e8 7e c1            call 0x7538
0x00B3B7:  e8 7e c1            call 0x7538
0x00B3B7:  e8 7e c1            call 0x7538
0x00B3BA:  a0 70 39            mov al, byte ptr [0x3970]
0x00B3BA:  a0 70 39            mov al, byte ptr [0x3970]
0x00B3BA:  a0 70 39            mov al, byte ptr [0x3970]
0x00B3BA:  a0 70 39            mov al, byte ptr [0x3970]
0x00B3BA:  a0 70 39            mov al, byte ptr [0x3970]
0x00B3BA:  a0 70 39            mov al, byte ptr [0x3970]
0x00B3BA:  a0 70 39            mov al, byte ptr [0x3970]
0x00B3BD:  3c 01               cmp al, 1
0x00B3BD:  3c 01               cmp al, 1
0x00B3BD:  3c 01               cmp al, 1
0x00B3BD:  3c 01               cmp al, 1
0x00B3BD:  3c 01               cmp al, 1
0x00B3BD:  3c 01               cmp al, 1
0x00B3BD:  3c 01               cmp al, 1
0x00B3BF:  74 03               je 0xb3c4
0x00B3BF:  74 03               je 0xb3c4
0x00B3BF:  74 03               je 0xb3c4
0x00B3BF:  74 03               je 0xb3c4
0x00B3BF:  74 03               je 0xb3c4
0x00B3BF:  74 03               je 0xb3c4
0x00B3BF:  74 03               je 0xb3c4
0x00B3C1:  e9 24 01            jmp 0xb4e8
0x00B3C1:  e9 24 01            jmp 0xb4e8
0x00B3C1:  e9 24 01            jmp 0xb4e8
0x00B3C1:  e9 24 01            jmp 0xb4e8
0x00B3C1:  e9 24 01            jmp 0xb4e8
0x00B3C1:  e9 24 01            jmp 0xb4e8
0x00B3C1:  e9 24 01            jmp 0xb4e8
0x00B3C4:  80 3e 93 36 00      cmp byte ptr [0x3693], 0
0x00B3C9:  b0 00               mov al, 0
0x00B3CB:  75 01               jne 0xb3ce
0x00B3CD:  40                  inc ax
0x00B3CE:  a2 93 36            mov byte ptr [0x3693], al
0x00B3CE:  a2 93 36            mov byte ptr [0x3693], al
0x00B3D1:  80 3e 93 36 00      cmp byte ptr [0x3693], 0
0x00B3D1:  80 3e 93 36 00      cmp byte ptr [0x3693], 0
0x00B3D6:  75 03               jne 0xb3db
0x00B3D6:  75 03               jne 0xb3db
0x00B3D8:  e9 80 00            jmp 0xb45b
0x00B3D8:  e9 80 00            jmp 0xb45b
0x00B3DB:  80 3e 92 36 01      cmp byte ptr [0x3692], 1
0x00B3E0:  75 19               jne 0xb3fb
0x00B3E2:  bf e5 87            mov di, 0x87e5
0x00B3E5:  0e                  push cs
0x00B3E6:  57                  push di
0x00B3E7:  31 c0               xor ax, ax
0x00B3E9:  50                  push ax
0x00B3EA:  31 c0               xor ax, ax
0x00B3EC:  50                  push ax
0x00B3ED:  31 c0               xor ax, ax
0x00B3EF:  50                  push ax
0x00B3F0:  31 c0               xor ax, ax
0x00B3F2:  50                  push ax
0x00B3F3:  31 c0               xor ax, ax
0x00B3F5:  50                  push ax
0x00B3F6:  9a c2 01 ed 0e      lcall 0xeed, 0x1c2
0x00B3FB:  80 3e 92 36 02      cmp byte ptr [0x3692], 2
0x00B3FB:  80 3e 92 36 02      cmp byte ptr [0x3692], 2
0x00B400:  75 19               jne 0xb41b
0x00B400:  75 19               jne 0xb41b
0x00B402:  bf 1b 88            mov di, 0x881b
0x00B402:  bf 1b 88            mov di, 0x881b
0x00B405:  0e                  push cs
0x00B405:  0e                  push cs
0x00B406:  57                  push di
0x00B406:  57                  push di
0x00B407:  31 c0               xor ax, ax
0x00B407:  31 c0               xor ax, ax
0x00B409:  50                  push ax
0x00B409:  50                  push ax
0x00B40A:  31 c0               xor ax, ax
0x00B40A:  31 c0               xor ax, ax
0x00B40C:  50                  push ax
0x00B40C:  50                  push ax
0x00B40D:  31 c0               xor ax, ax
0x00B40D:  31 c0               xor ax, ax
0x00B40F:  50                  push ax
0x00B40F:  50                  push ax
0x00B410:  31 c0               xor ax, ax
0x00B410:  31 c0               xor ax, ax
0x00B412:  50                  push ax
0x00B412:  50                  push ax
0x00B413:  31 c0               xor ax, ax
0x00B413:  31 c0               xor ax, ax
0x00B415:  50                  push ax
0x00B415:  50                  push ax
0x00B416:  9a c2 01 ed 0e      lcall 0xeed, 0x1c2
0x00B416:  9a c2 01 ed 0e      lcall 0xeed, 0x1c2
0x00B41B:  80 3e 92 36 03      cmp byte ptr [0x3692], 3
0x00B41B:  80 3e 92 36 03      cmp byte ptr [0x3692], 3
0x00B41B:  80 3e 92 36 03      cmp byte ptr [0x3692], 3
0x00B420:  75 19               jne 0xb43b
0x00B420:  75 19               jne 0xb43b
0x00B420:  75 19               jne 0xb43b
0x00B422:  bf 43 88            mov di, 0x8843
0x00B422:  bf 43 88            mov di, 0x8843
0x00B422:  bf 43 88            mov di, 0x8843
0x00B425:  0e                  push cs
0x00B425:  0e                  push cs
0x00B425:  0e                  push cs
0x00B426:  57                  push di
0x00B426:  57                  push di
0x00B426:  57                  push di
0x00B427:  31 c0               xor ax, ax
0x00B427:  31 c0               xor ax, ax
0x00B427:  31 c0               xor ax, ax
0x00B429:  50                  push ax
0x00B429:  50                  push ax
0x00B429:  50                  push ax
0x00B42A:  31 c0               xor ax, ax
0x00B42A:  31 c0               xor ax, ax
0x00B42A:  31 c0               xor ax, ax
0x00B42C:  50                  push ax
0x00B42C:  50                  push ax
0x00B42C:  50                  push ax
0x00B42D:  31 c0               xor ax, ax
0x00B42D:  31 c0               xor ax, ax
0x00B42D:  31 c0               xor ax, ax
0x00B42F:  50                  push ax
0x00B42F:  50                  push ax
0x00B42F:  50                  push ax
0x00B430:  31 c0               xor ax, ax
0x00B430:  31 c0               xor ax, ax
0x00B430:  31 c0               xor ax, ax
0x00B432:  50                  push ax
0x00B432:  50                  push ax
0x00B432:  50                  push ax
0x00B433:  31 c0               xor ax, ax
0x00B433:  31 c0               xor ax, ax
0x00B433:  31 c0               xor ax, ax
0x00B435:  50                  push ax
0x00B435:  50                  push ax
0x00B435:  50                  push ax
0x00B436:  9a c2 01 ed 0e      lcall 0xeed, 0x1c2
0x00B436:  9a c2 01 ed 0e      lcall 0xeed, 0x1c2
0x00B436:  9a c2 01 ed 0e      lcall 0xeed, 0x1c2
0x00B43B:  80 3e 92 36 04      cmp byte ptr [0x3692], 4
0x00B43B:  80 3e 92 36 04      cmp byte ptr [0x3692], 4
0x00B43B:  80 3e 92 36 04      cmp byte ptr [0x3692], 4
0x00B43B:  80 3e 92 36 04      cmp byte ptr [0x3692], 4
0x00B440:  75 19               jne 0xb45b
0x00B440:  75 19               jne 0xb45b
0x00B440:  75 19               jne 0xb45b
0x00B440:  75 19               jne 0xb45b
0x00B442:  bf 58 88            mov di, 0x8858
0x00B442:  bf 58 88            mov di, 0x8858
0x00B442:  bf 58 88            mov di, 0x8858
0x00B442:  bf 58 88            mov di, 0x8858
0x00B445:  0e                  push cs
0x00B445:  0e                  push cs
0x00B445:  0e                  push cs
0x00B445:  0e                  push cs
0x00B446:  57                  push di
0x00B446:  57                  push di
0x00B446:  57                  push di
0x00B446:  57                  push di
0x00B447:  31 c0               xor ax, ax
0x00B447:  31 c0               xor ax, ax
0x00B447:  31 c0               xor ax, ax
0x00B447:  31 c0               xor ax, ax
0x00B449:  50                  push ax
0x00B449:  50                  push ax
0x00B449:  50                  push ax
0x00B449:  50                  push ax
0x00B44A:  31 c0               xor ax, ax
0x00B44A:  31 c0               xor ax, ax
0x00B44A:  31 c0               xor ax, ax
0x00B44A:  31 c0               xor ax, ax
0x00B44C:  50                  push ax
0x00B44C:  50                  push ax
0x00B44C:  50                  push ax
0x00B44C:  50                  push ax
0x00B44D:  31 c0               xor ax, ax
0x00B44D:  31 c0               xor ax, ax
0x00B44D:  31 c0               xor ax, ax
0x00B44D:  31 c0               xor ax, ax
0x00B44F:  50                  push ax
0x00B44F:  50                  push ax
0x00B44F:  50                  push ax
0x00B44F:  50                  push ax
0x00B450:  31 c0               xor ax, ax
0x00B450:  31 c0               xor ax, ax
0x00B450:  31 c0               xor ax, ax
0x00B450:  31 c0               xor ax, ax
0x00B452:  50                  push ax
0x00B452:  50                  push ax
0x00B452:  50                  push ax
0x00B452:  50                  push ax
0x00B453:  31 c0               xor ax, ax
0x00B453:  31 c0               xor ax, ax
0x00B453:  31 c0               xor ax, ax
0x00B453:  31 c0               xor ax, ax
0x00B455:  50                  push ax
0x00B455:  50                  push ax
0x00B455:  50                  push ax
0x00B455:  50                  push ax
0x00B456:  9a c2 01 ed 0e      lcall 0xeed, 0x1c2
0x00B456:  9a c2 01 ed 0e      lcall 0xeed, 0x1c2
0x00B456:  9a c2 01 ed 0e      lcall 0xeed, 0x1c2
0x00B456:  9a c2 01 ed 0e      lcall 0xeed, 0x1c2
0x00B45B:  80 3e 93 36 00      cmp byte ptr [0x3693], 0
0x00B45B:  80 3e 93 36 00      cmp byte ptr [0x3693], 0
0x00B45B:  80 3e 93 36 00      cmp byte ptr [0x3693], 0
0x00B45B:  80 3e 93 36 00      cmp byte ptr [0x3693], 0
0x00B45B:  80 3e 93 36 00      cmp byte ptr [0x3693], 0
0x00B460:  74 03               je 0xb465
0x00B460:  74 03               je 0xb465
0x00B460:  74 03               je 0xb465
0x00B460:  74 03               je 0xb465
0x00B460:  74 03               je 0xb465
0x00B462:  e9 80 00            jmp 0xb4e5
0x00B462:  e9 80 00            jmp 0xb4e5
0x00B462:  e9 80 00            jmp 0xb4e5
0x00B462:  e9 80 00            jmp 0xb4e5
0x00B462:  e9 80 00            jmp 0xb4e5
0x00B465:  80 3e 92 36 01      cmp byte ptr [0x3692], 1
0x00B46A:  75 19               jne 0xb485
0x00B46C:  bf 6f 88            mov di, 0x886f
0x00B46F:  0e                  push cs
0x00B470:  57                  push di
0x00B471:  31 c0               xor ax, ax
0x00B473:  50                  push ax
0x00B474:  31 c0               xor ax, ax
0x00B476:  50                  push ax
0x00B477:  31 c0               xor ax, ax
0x00B479:  50                  push ax
0x00B47A:  31 c0               xor ax, ax
0x00B47C:  50                  push ax
0x00B47D:  31 c0               xor ax, ax
0x00B47F:  50                  push ax
0x00B480:  9a c2 01 ed 0e      lcall 0xeed, 0x1c2
0x00B485:  80 3e 92 36 02      cmp byte ptr [0x3692], 2
0x00B485:  80 3e 92 36 02      cmp byte ptr [0x3692], 2
0x00B48A:  75 19               jne 0xb4a5
0x00B48A:  75 19               jne 0xb4a5
0x00B48C:  bf 86 88            mov di, 0x8886
0x00B48C:  bf 86 88            mov di, 0x8886
0x00B48F:  0e                  push cs
0x00B48F:  0e                  push cs
0x00B490:  57                  push di
0x00B490:  57                  push di
0x00B491:  31 c0               xor ax, ax
0x00B491:  31 c0               xor ax, ax
0x00B493:  50                  push ax
0x00B493:  50                  push ax
0x00B494:  31 c0               xor ax, ax
0x00B494:  31 c0               xor ax, ax
0x00B496:  50                  push ax
0x00B496:  50                  push ax
0x00B497:  31 c0               xor ax, ax
0x00B497:  31 c0               xor ax, ax
0x00B499:  50                  push ax
0x00B499:  50                  push ax
0x00B49A:  31 c0               xor ax, ax
0x00B49A:  31 c0               xor ax, ax
0x00B49C:  50                  push ax
0x00B49C:  50                  push ax
0x00B49D:  31 c0               xor ax, ax
0x00B49D:  31 c0               xor ax, ax
0x00B49F:  50                  push ax
0x00B49F:  50                  push ax
0x00B4A0:  9a c2 01 ed 0e      lcall 0xeed, 0x1c2
0x00B4A0:  9a c2 01 ed 0e      lcall 0xeed, 0x1c2
0x00B4A5:  80 3e 92 36 03      cmp byte ptr [0x3692], 3
0x00B4A5:  80 3e 92 36 03      cmp byte ptr [0x3692], 3
0x00B4A5:  80 3e 92 36 03      cmp byte ptr [0x3692], 3
0x00B4AA:  75 19               jne 0xb4c5
0x00B4AA:  75 19               jne 0xb4c5
0x00B4AA:  75 19               jne 0xb4c5
0x00B4AC:  bf a0 88            mov di, 0x88a0
0x00B4AC:  bf a0 88            mov di, 0x88a0
0x00B4AC:  bf a0 88            mov di, 0x88a0
0x00B4AF:  0e                  push cs
0x00B4AF:  0e                  push cs
0x00B4AF:  0e                  push cs
0x00B4B0:  57                  push di
0x00B4B0:  57                  push di
0x00B4B0:  57                  push di
0x00B4B1:  31 c0               xor ax, ax
0x00B4B1:  31 c0               xor ax, ax
0x00B4B1:  31 c0               xor ax, ax
0x00B4B3:  50                  push ax
0x00B4B3:  50                  push ax
0x00B4B3:  50                  push ax
0x00B4B4:  31 c0               xor ax, ax
0x00B4B4:  31 c0               xor ax, ax
0x00B4B4:  31 c0               xor ax, ax
0x00B4B6:  50                  push ax
0x00B4B6:  50                  push ax
0x00B4B6:  50                  push ax
0x00B4B7:  31 c0               xor ax, ax
0x00B4B7:  31 c0               xor ax, ax
0x00B4B7:  31 c0               xor ax, ax
0x00B4B9:  50                  push ax
0x00B4B9:  50                  push ax
0x00B4B9:  50                  push ax
0x00B4BA:  31 c0               xor ax, ax
0x00B4BA:  31 c0               xor ax, ax
0x00B4BA:  31 c0               xor ax, ax
0x00B4BC:  50                  push ax
0x00B4BC:  50                  push ax
0x00B4BC:  50                  push ax
0x00B4BD:  31 c0               xor ax, ax
0x00B4BD:  31 c0               xor ax, ax
0x00B4BD:  31 c0               xor ax, ax
0x00B4BF:  50                  push ax
0x00B4BF:  50                  push ax
0x00B4BF:  50                  push ax
0x00B4C0:  9a c2 01 ed 0e      lcall 0xeed, 0x1c2
0x00B4C0:  9a c2 01 ed 0e      lcall 0xeed, 0x1c2
0x00B4C0:  9a c2 01 ed 0e      lcall 0xeed, 0x1c2
0x00B4C5:  80 3e 92 36 04      cmp byte ptr [0x3692], 4
0x00B4C5:  80 3e 92 36 04      cmp byte ptr [0x3692], 4
0x00B4C5:  80 3e 92 36 04      cmp byte ptr [0x3692], 4
0x00B4C5:  80 3e 92 36 04      cmp byte ptr [0x3692], 4
0x00B4CA:  75 19               jne 0xb4e5
0x00B4CA:  75 19               jne 0xb4e5
0x00B4CA:  75 19               jne 0xb4e5
0x00B4CA:  75 19               jne 0xb4e5
0x00B4CC:  bf b5 88            mov di, 0x88b5
0x00B4CC:  bf b5 88            mov di, 0x88b5
0x00B4CC:  bf b5 88            mov di, 0x88b5
0x00B4CC:  bf b5 88            mov di, 0x88b5
0x00B4CF:  0e                  push cs
0x00B4CF:  0e                  push cs
0x00B4CF:  0e                  push cs
0x00B4CF:  0e                  push cs
0x00B4D0:  57                  push di
0x00B4D0:  57                  push di
0x00B4D0:  57                  push di
0x00B4D0:  57                  push di
0x00B4D1:  31 c0               xor ax, ax
0x00B4D1:  31 c0               xor ax, ax
0x00B4D1:  31 c0               xor ax, ax
0x00B4D1:  31 c0               xor ax, ax
0x00B4D3:  50                  push ax
0x00B4D3:  50                  push ax
0x00B4D3:  50                  push ax
0x00B4D3:  50                  push ax
0x00B4D4:  31 c0               xor ax, ax
0x00B4D4:  31 c0               xor ax, ax
0x00B4D4:  31 c0               xor ax, ax
0x00B4D4:  31 c0               xor ax, ax
0x00B4D6:  50                  push ax
0x00B4D6:  50                  push ax
0x00B4D6:  50                  push ax
0x00B4D6:  50                  push ax
0x00B4D7:  31 c0               xor ax, ax
0x00B4D7:  31 c0               xor ax, ax
0x00B4D7:  31 c0               xor ax, ax
0x00B4D7:  31 c0               xor ax, ax
0x00B4D9:  50                  push ax
0x00B4D9:  50                  push ax
0x00B4D9:  50                  push ax
0x00B4D9:  50                  push ax
0x00B4DA:  31 c0               xor ax, ax
0x00B4DA:  31 c0               xor ax, ax
0x00B4DA:  31 c0               xor ax, ax
0x00B4DA:  31 c0               xor ax, ax
0x00B4DC:  50                  push ax
0x00B4DC:  50                  push ax
0x00B4DC:  50                  push ax
0x00B4DC:  50                  push ax
0x00B4DD:  31 c0               xor ax, ax
0x00B4DD:  31 c0               xor ax, ax
0x00B4DD:  31 c0               xor ax, ax
0x00B4DD:  31 c0               xor ax, ax
0x00B4DF:  50                  push ax
0x00B4DF:  50                  push ax
0x00B4DF:  50                  push ax
0x00B4DF:  50                  push ax
0x00B4E0:  9a c2 01 ed 0e      lcall 0xeed, 0x1c2
0x00B4E0:  9a c2 01 ed 0e      lcall 0xeed, 0x1c2
0x00B4E0:  9a c2 01 ed 0e      lcall 0xeed, 0x1c2
0x00B4E0:  9a c2 01 ed 0e      lcall 0xeed, 0x1c2
0x00B4E5:  e9 58 04            jmp 0xb940
0x00B4E5:  e9 58 04            jmp 0xb940
0x00B4E5:  e9 58 04            jmp 0xb940
0x00B4E5:  e9 58 04            jmp 0xb940
0x00B4E5:  e9 58 04            jmp 0xb940
